ARM GAS  C:\Users\Stephen\AppData\Local\Temp\ccRNJVks.s 			page 1


   1              		.syntax unified
   2              		.cpu cortex-m0plus
   3              		.fpu softvfp
   4              		.eabi_attribute 20, 1
   5              		.eabi_attribute 21, 1
   6              		.eabi_attribute 23, 3
   7              		.eabi_attribute 24, 1
   8              		.eabi_attribute 25, 1
   9              		.eabi_attribute 26, 1
  10              		.eabi_attribute 30, 4
  11              		.eabi_attribute 34, 0
  12              		.eabi_attribute 18, 4
  13              		.thumb
  14              		.syntax unified
  15              		.file	"I2C_I2C_BOOT.c"
  16              		.text
  17              	.Ltext0:
  18              		.cfi_sections	.debug_frame
  19              		.section	.text.I2C_I2CResposeInsert,"ax",%progbits
  20              		.align	1
  21              		.code	16
  22              		.thumb_func
  23              		.type	I2C_I2CResposeInsert, %function
  24              	I2C_I2CResposeInsert:
  25              	.LFB6:
  26              		.file 1 "Generated_Source\\PSoC4\\I2C_I2C_BOOT.c"
   1:Generated_Source\PSoC4/I2C_I2C_BOOT.c **** /***************************************************************************//**
   2:Generated_Source\PSoC4/I2C_I2C_BOOT.c **** * \file I2C_I2C_BOOT.c
   3:Generated_Source\PSoC4/I2C_I2C_BOOT.c **** * \version 3.20
   4:Generated_Source\PSoC4/I2C_I2C_BOOT.c **** *
   5:Generated_Source\PSoC4/I2C_I2C_BOOT.c **** * \brief
   6:Generated_Source\PSoC4/I2C_I2C_BOOT.c **** *  This file provides the source code of the bootloader communication APIs
   7:Generated_Source\PSoC4/I2C_I2C_BOOT.c **** *  for the SCB Component I2C mode.
   8:Generated_Source\PSoC4/I2C_I2C_BOOT.c **** *
   9:Generated_Source\PSoC4/I2C_I2C_BOOT.c **** * Note:
  10:Generated_Source\PSoC4/I2C_I2C_BOOT.c **** *
  11:Generated_Source\PSoC4/I2C_I2C_BOOT.c **** ********************************************************************************
  12:Generated_Source\PSoC4/I2C_I2C_BOOT.c **** * \copyright
  13:Generated_Source\PSoC4/I2C_I2C_BOOT.c **** * Copyright 2013-2016, Cypress Semiconductor Corporation.  All rights reserved.
  14:Generated_Source\PSoC4/I2C_I2C_BOOT.c **** * You may use this file only in accordance with the license, terms, conditions,
  15:Generated_Source\PSoC4/I2C_I2C_BOOT.c **** * disclaimers, and limitations in the end user license agreement accompanying
  16:Generated_Source\PSoC4/I2C_I2C_BOOT.c **** * the software package with which this file was provided.
  17:Generated_Source\PSoC4/I2C_I2C_BOOT.c **** *******************************************************************************/
  18:Generated_Source\PSoC4/I2C_I2C_BOOT.c **** 
  19:Generated_Source\PSoC4/I2C_I2C_BOOT.c **** #include "I2C_BOOT.h"
  20:Generated_Source\PSoC4/I2C_I2C_BOOT.c **** #include "I2C_I2C_PVT.h"
  21:Generated_Source\PSoC4/I2C_I2C_BOOT.c **** 
  22:Generated_Source\PSoC4/I2C_I2C_BOOT.c **** #if defined(CYDEV_BOOTLOADER_IO_COMP) && (I2C_I2C_BTLDR_COMM_ENABLED)
  23:Generated_Source\PSoC4/I2C_I2C_BOOT.c **** 
  24:Generated_Source\PSoC4/I2C_I2C_BOOT.c **** /***************************************
  25:Generated_Source\PSoC4/I2C_I2C_BOOT.c **** *    Private I/O Component Vars
  26:Generated_Source\PSoC4/I2C_I2C_BOOT.c **** ***************************************/
  27:Generated_Source\PSoC4/I2C_I2C_BOOT.c **** 
  28:Generated_Source\PSoC4/I2C_I2C_BOOT.c **** /* Writes to this buffer */
  29:Generated_Source\PSoC4/I2C_I2C_BOOT.c **** static uint8 I2C_slReadBuf[I2C_I2C_BTLDR_SIZEOF_READ_BUFFER];
  30:Generated_Source\PSoC4/I2C_I2C_BOOT.c **** 
  31:Generated_Source\PSoC4/I2C_I2C_BOOT.c **** /* Reads from this buffer */
ARM GAS  C:\Users\Stephen\AppData\Local\Temp\ccRNJVks.s 			page 2


  32:Generated_Source\PSoC4/I2C_I2C_BOOT.c **** static uint8 I2C_slWriteBuf[I2C_I2C_BTLDR_SIZEOF_WRITE_BUFFER];
  33:Generated_Source\PSoC4/I2C_I2C_BOOT.c **** 
  34:Generated_Source\PSoC4/I2C_I2C_BOOT.c **** /* Flag to release buffer to be read */
  35:Generated_Source\PSoC4/I2C_I2C_BOOT.c **** static uint32 I2C_applyBuffer;
  36:Generated_Source\PSoC4/I2C_I2C_BOOT.c **** 
  37:Generated_Source\PSoC4/I2C_I2C_BOOT.c **** 
  38:Generated_Source\PSoC4/I2C_I2C_BOOT.c **** /***************************************
  39:Generated_Source\PSoC4/I2C_I2C_BOOT.c **** *    Private Function Prototypes
  40:Generated_Source\PSoC4/I2C_I2C_BOOT.c **** ***************************************/
  41:Generated_Source\PSoC4/I2C_I2C_BOOT.c **** 
  42:Generated_Source\PSoC4/I2C_I2C_BOOT.c **** static void I2C_I2CResposeInsert(void);
  43:Generated_Source\PSoC4/I2C_I2C_BOOT.c **** 
  44:Generated_Source\PSoC4/I2C_I2C_BOOT.c **** 
  45:Generated_Source\PSoC4/I2C_I2C_BOOT.c **** /*******************************************************************************
  46:Generated_Source\PSoC4/I2C_I2C_BOOT.c **** * Function Name: I2C_I2CCyBtldrCommStart
  47:Generated_Source\PSoC4/I2C_I2C_BOOT.c **** ****************************************************************************//**
  48:Generated_Source\PSoC4/I2C_I2C_BOOT.c **** *
  49:Generated_Source\PSoC4/I2C_I2C_BOOT.c **** *  Starts the I2C component and enables its interrupt.
  50:Generated_Source\PSoC4/I2C_I2C_BOOT.c **** *  Every incoming I2C write transaction is treated as a command for the
  51:Generated_Source\PSoC4/I2C_I2C_BOOT.c **** *  bootloader.
  52:Generated_Source\PSoC4/I2C_I2C_BOOT.c **** *  Every incoming I2C read transaction returns 0xFF until the bootloader
  53:Generated_Source\PSoC4/I2C_I2C_BOOT.c **** *  provides a response to the executed command.
  54:Generated_Source\PSoC4/I2C_I2C_BOOT.c **** *
  55:Generated_Source\PSoC4/I2C_I2C_BOOT.c **** * \globalvars
  56:Generated_Source\PSoC4/I2C_I2C_BOOT.c **** *  I2C_applyBuffer - the flag to release the buffer with a response
  57:Generated_Source\PSoC4/I2C_I2C_BOOT.c **** *  to be read by the host.
  58:Generated_Source\PSoC4/I2C_I2C_BOOT.c **** *
  59:Generated_Source\PSoC4/I2C_I2C_BOOT.c **** *******************************************************************************/
  60:Generated_Source\PSoC4/I2C_I2C_BOOT.c **** void I2C_I2CCyBtldrCommStart(void)
  61:Generated_Source\PSoC4/I2C_I2C_BOOT.c **** {
  62:Generated_Source\PSoC4/I2C_I2C_BOOT.c ****     I2C_I2CSlaveInitWriteBuf(I2C_slWriteBuf, I2C_I2C_BTLDR_SIZEOF_WRITE_BUFFER);
  63:Generated_Source\PSoC4/I2C_I2C_BOOT.c ****     I2C_I2CSlaveInitReadBuf (I2C_slReadBuf, 0u);
  64:Generated_Source\PSoC4/I2C_I2C_BOOT.c **** 
  65:Generated_Source\PSoC4/I2C_I2C_BOOT.c ****     I2C_SetCustomInterruptHandler(&I2C_I2CResposeInsert);
  66:Generated_Source\PSoC4/I2C_I2C_BOOT.c ****     I2C_applyBuffer = 0u;
  67:Generated_Source\PSoC4/I2C_I2C_BOOT.c **** 
  68:Generated_Source\PSoC4/I2C_I2C_BOOT.c ****     I2C_Start();
  69:Generated_Source\PSoC4/I2C_I2C_BOOT.c **** }
  70:Generated_Source\PSoC4/I2C_I2C_BOOT.c **** 
  71:Generated_Source\PSoC4/I2C_I2C_BOOT.c **** 
  72:Generated_Source\PSoC4/I2C_I2C_BOOT.c **** /*******************************************************************************
  73:Generated_Source\PSoC4/I2C_I2C_BOOT.c **** * Function Name: I2C_I2CCyBtldrCommStop
  74:Generated_Source\PSoC4/I2C_I2C_BOOT.c **** ****************************************************************************//**
  75:Generated_Source\PSoC4/I2C_I2C_BOOT.c **** *
  76:Generated_Source\PSoC4/I2C_I2C_BOOT.c **** *  Disables the I2C component.
  77:Generated_Source\PSoC4/I2C_I2C_BOOT.c **** *
  78:Generated_Source\PSoC4/I2C_I2C_BOOT.c **** *******************************************************************************/
  79:Generated_Source\PSoC4/I2C_I2C_BOOT.c **** void I2C_I2CCyBtldrCommStop(void)
  80:Generated_Source\PSoC4/I2C_I2C_BOOT.c **** {
  81:Generated_Source\PSoC4/I2C_I2C_BOOT.c ****     I2C_Stop();
  82:Generated_Source\PSoC4/I2C_I2C_BOOT.c **** }
  83:Generated_Source\PSoC4/I2C_I2C_BOOT.c **** 
  84:Generated_Source\PSoC4/I2C_I2C_BOOT.c **** 
  85:Generated_Source\PSoC4/I2C_I2C_BOOT.c **** /*******************************************************************************
  86:Generated_Source\PSoC4/I2C_I2C_BOOT.c **** * Function Name: I2C_I2CCyBtldrCommReset
  87:Generated_Source\PSoC4/I2C_I2C_BOOT.c **** ****************************************************************************//**
  88:Generated_Source\PSoC4/I2C_I2C_BOOT.c **** *
ARM GAS  C:\Users\Stephen\AppData\Local\Temp\ccRNJVks.s 			page 3


  89:Generated_Source\PSoC4/I2C_I2C_BOOT.c **** *  Resets read and write I2C buffers to the initial state and resets the slave
  90:Generated_Source\PSoC4/I2C_I2C_BOOT.c **** *  status.
  91:Generated_Source\PSoC4/I2C_I2C_BOOT.c **** *
  92:Generated_Source\PSoC4/I2C_I2C_BOOT.c **** * \globalvars
  93:Generated_Source\PSoC4/I2C_I2C_BOOT.c **** *  I2C_slRdBufSize - used to store slave read buffer size.
  94:Generated_Source\PSoC4/I2C_I2C_BOOT.c **** *  I2C_slRdBufIndex - used to store the current index within the
  95:Generated_Source\PSoC4/I2C_I2C_BOOT.c **** *  slave read buffer.
  96:Generated_Source\PSoC4/I2C_I2C_BOOT.c **** *  I2C_slWrBufIndex - used to store current index within slave
  97:Generated_Source\PSoC4/I2C_I2C_BOOT.c **** *  write buffer.
  98:Generated_Source\PSoC4/I2C_I2C_BOOT.c **** *  I2C_slStatus  - used to store current status of I2C slave.
  99:Generated_Source\PSoC4/I2C_I2C_BOOT.c **** *
 100:Generated_Source\PSoC4/I2C_I2C_BOOT.c **** *******************************************************************************/
 101:Generated_Source\PSoC4/I2C_I2C_BOOT.c **** void I2C_I2CCyBtldrCommReset(void)
 102:Generated_Source\PSoC4/I2C_I2C_BOOT.c **** {
 103:Generated_Source\PSoC4/I2C_I2C_BOOT.c ****     /* Make read buffer full */
 104:Generated_Source\PSoC4/I2C_I2C_BOOT.c ****     I2C_slRdBufSize = 0u;
 105:Generated_Source\PSoC4/I2C_I2C_BOOT.c **** 
 106:Generated_Source\PSoC4/I2C_I2C_BOOT.c ****     /* Reset write buffer and Read buffer */
 107:Generated_Source\PSoC4/I2C_I2C_BOOT.c ****     I2C_slRdBufIndex = 0u;
 108:Generated_Source\PSoC4/I2C_I2C_BOOT.c ****     I2C_slWrBufIndex = 0u;
 109:Generated_Source\PSoC4/I2C_I2C_BOOT.c **** 
 110:Generated_Source\PSoC4/I2C_I2C_BOOT.c ****     /* Clear read and write status */
 111:Generated_Source\PSoC4/I2C_I2C_BOOT.c ****     I2C_slStatus = 0u;
 112:Generated_Source\PSoC4/I2C_I2C_BOOT.c **** }
 113:Generated_Source\PSoC4/I2C_I2C_BOOT.c **** 
 114:Generated_Source\PSoC4/I2C_I2C_BOOT.c **** 
 115:Generated_Source\PSoC4/I2C_I2C_BOOT.c **** /*******************************************************************************
 116:Generated_Source\PSoC4/I2C_I2C_BOOT.c **** * Function Name: I2C_I2CCyBtldrCommRead
 117:Generated_Source\PSoC4/I2C_I2C_BOOT.c **** ****************************************************************************//**
 118:Generated_Source\PSoC4/I2C_I2C_BOOT.c **** *
 119:Generated_Source\PSoC4/I2C_I2C_BOOT.c **** *  Allows the caller to read data from the bootloader host (the host writes the
 120:Generated_Source\PSoC4/I2C_I2C_BOOT.c **** *  data). The function handles polling to allow a block of data to be completely
 121:Generated_Source\PSoC4/I2C_I2C_BOOT.c **** *  received from the host device.
 122:Generated_Source\PSoC4/I2C_I2C_BOOT.c **** *
 123:Generated_Source\PSoC4/I2C_I2C_BOOT.c **** *  \param pData: Pointer to storage for the block of data to be read from the
 124:Generated_Source\PSoC4/I2C_I2C_BOOT.c **** *   bootloader host
 125:Generated_Source\PSoC4/I2C_I2C_BOOT.c **** *  \param size: Number of bytes to be read.
 126:Generated_Source\PSoC4/I2C_I2C_BOOT.c **** *  \param count: Pointer to the variable to write the number of bytes actually
 127:Generated_Source\PSoC4/I2C_I2C_BOOT.c **** *   read.
 128:Generated_Source\PSoC4/I2C_I2C_BOOT.c **** *  \param timeOut: Number of units in 10 ms to wait before returning
 129:Generated_Source\PSoC4/I2C_I2C_BOOT.c **** *   because of a timeout.
 130:Generated_Source\PSoC4/I2C_I2C_BOOT.c **** *
 131:Generated_Source\PSoC4/I2C_I2C_BOOT.c **** *  \return
 132:Generated_Source\PSoC4/I2C_I2C_BOOT.c **** *   Returns CYRET_SUCCESS if no problem was encountered or returns the value
 133:Generated_Source\PSoC4/I2C_I2C_BOOT.c **** *   that best describes the problem. For more information refer to the
 134:Generated_Source\PSoC4/I2C_I2C_BOOT.c **** *   "Return Codes" section of the System Reference Guide.
 135:Generated_Source\PSoC4/I2C_I2C_BOOT.c **** *
 136:Generated_Source\PSoC4/I2C_I2C_BOOT.c **** * \globalvars
 137:Generated_Source\PSoC4/I2C_I2C_BOOT.c **** *  I2C_slStatus  - used to store current status of I2C slave.
 138:Generated_Source\PSoC4/I2C_I2C_BOOT.c **** *  I2C_slWriteBuf - used to store received command.
 139:Generated_Source\PSoC4/I2C_I2C_BOOT.c **** *  I2C_slWrBufIndex - used to store current index within slave
 140:Generated_Source\PSoC4/I2C_I2C_BOOT.c **** *  write buffer.
 141:Generated_Source\PSoC4/I2C_I2C_BOOT.c **** *
 142:Generated_Source\PSoC4/I2C_I2C_BOOT.c **** *******************************************************************************/
 143:Generated_Source\PSoC4/I2C_I2C_BOOT.c **** cystatus I2C_I2CCyBtldrCommRead(uint8 pData[], uint16 size, uint16 * count, uint8 timeOut)
 144:Generated_Source\PSoC4/I2C_I2C_BOOT.c **** {
 145:Generated_Source\PSoC4/I2C_I2C_BOOT.c ****     cystatus status;
ARM GAS  C:\Users\Stephen\AppData\Local\Temp\ccRNJVks.s 			page 4


 146:Generated_Source\PSoC4/I2C_I2C_BOOT.c ****     uint32 timeoutMs;
 147:Generated_Source\PSoC4/I2C_I2C_BOOT.c **** 
 148:Generated_Source\PSoC4/I2C_I2C_BOOT.c ****     status = CYRET_BAD_PARAM;
 149:Generated_Source\PSoC4/I2C_I2C_BOOT.c **** 
 150:Generated_Source\PSoC4/I2C_I2C_BOOT.c ****     if ((NULL != pData) && (size > 0u))
 151:Generated_Source\PSoC4/I2C_I2C_BOOT.c ****     {
 152:Generated_Source\PSoC4/I2C_I2C_BOOT.c ****         status = CYRET_TIMEOUT;
 153:Generated_Source\PSoC4/I2C_I2C_BOOT.c ****         timeoutMs = ((uint32) 10u * timeOut); /* Convert from 10mS check to 1mS checks */
 154:Generated_Source\PSoC4/I2C_I2C_BOOT.c **** 
 155:Generated_Source\PSoC4/I2C_I2C_BOOT.c ****         while (0u != timeoutMs)
 156:Generated_Source\PSoC4/I2C_I2C_BOOT.c ****         {
 157:Generated_Source\PSoC4/I2C_I2C_BOOT.c ****             /* Check if host complete write */
 158:Generated_Source\PSoC4/I2C_I2C_BOOT.c ****             if (0u != (I2C_I2C_SSTAT_WR_CMPLT & I2C_slStatus))
 159:Generated_Source\PSoC4/I2C_I2C_BOOT.c ****             {
 160:Generated_Source\PSoC4/I2C_I2C_BOOT.c ****                 /* Copy number of written bytes */
 161:Generated_Source\PSoC4/I2C_I2C_BOOT.c ****                 *count = (uint16) I2C_slWrBufIndex;
 162:Generated_Source\PSoC4/I2C_I2C_BOOT.c **** 
 163:Generated_Source\PSoC4/I2C_I2C_BOOT.c ****                 /* Clear slave status and write index */
 164:Generated_Source\PSoC4/I2C_I2C_BOOT.c ****                 I2C_slStatus = 0u;
 165:Generated_Source\PSoC4/I2C_I2C_BOOT.c ****                 I2C_slWrBufIndex = 0u;
 166:Generated_Source\PSoC4/I2C_I2C_BOOT.c **** 
 167:Generated_Source\PSoC4/I2C_I2C_BOOT.c ****                 /* Copy command into bootloader buffer */
 168:Generated_Source\PSoC4/I2C_I2C_BOOT.c ****                 (void) memcpy((void *) pData, (const void *) I2C_slWriteBuf,
 169:Generated_Source\PSoC4/I2C_I2C_BOOT.c ****                                               I2C_BYTES_TO_COPY(*count, size));
 170:Generated_Source\PSoC4/I2C_I2C_BOOT.c **** 
 171:Generated_Source\PSoC4/I2C_I2C_BOOT.c ****                 status = CYRET_SUCCESS;
 172:Generated_Source\PSoC4/I2C_I2C_BOOT.c ****                 break;
 173:Generated_Source\PSoC4/I2C_I2C_BOOT.c ****             }
 174:Generated_Source\PSoC4/I2C_I2C_BOOT.c **** 
 175:Generated_Source\PSoC4/I2C_I2C_BOOT.c ****             CyDelay(I2C_WAIT_1_MS);
 176:Generated_Source\PSoC4/I2C_I2C_BOOT.c ****             --timeoutMs;
 177:Generated_Source\PSoC4/I2C_I2C_BOOT.c ****         }
 178:Generated_Source\PSoC4/I2C_I2C_BOOT.c ****     }
 179:Generated_Source\PSoC4/I2C_I2C_BOOT.c **** 
 180:Generated_Source\PSoC4/I2C_I2C_BOOT.c ****     return(status);
 181:Generated_Source\PSoC4/I2C_I2C_BOOT.c **** }
 182:Generated_Source\PSoC4/I2C_I2C_BOOT.c **** 
 183:Generated_Source\PSoC4/I2C_I2C_BOOT.c **** 
 184:Generated_Source\PSoC4/I2C_I2C_BOOT.c **** /*******************************************************************************
 185:Generated_Source\PSoC4/I2C_I2C_BOOT.c **** * Function Name: I2C_I2CCyBtldrCommWrite
 186:Generated_Source\PSoC4/I2C_I2C_BOOT.c **** ****************************************************************************//**
 187:Generated_Source\PSoC4/I2C_I2C_BOOT.c **** *
 188:Generated_Source\PSoC4/I2C_I2C_BOOT.c **** *  Allows the caller to write data to the bootloader host (the host reads the
 189:Generated_Source\PSoC4/I2C_I2C_BOOT.c **** *  data). The function does not use timeout and returns after data has been
 190:Generated_Source\PSoC4/I2C_I2C_BOOT.c **** *  copied into the slave read buffer. This data is available to be read by the
 191:Generated_Source\PSoC4/I2C_I2C_BOOT.c **** *  bootloader host until following host data write.
 192:Generated_Source\PSoC4/I2C_I2C_BOOT.c **** *
 193:Generated_Source\PSoC4/I2C_I2C_BOOT.c **** *  \param pData: Pointer to the block of data to be written to the bootloader
 194:Generated_Source\PSoC4/I2C_I2C_BOOT.c **** *   host.
 195:Generated_Source\PSoC4/I2C_I2C_BOOT.c **** *  \param size: Number of bytes to be written.
 196:Generated_Source\PSoC4/I2C_I2C_BOOT.c **** *  \param count: Pointer to the variable to write the number of bytes actually
 197:Generated_Source\PSoC4/I2C_I2C_BOOT.c **** *   written.
 198:Generated_Source\PSoC4/I2C_I2C_BOOT.c **** *  \param timeOut: Number of units in 10 ms to wait before returning
 199:Generated_Source\PSoC4/I2C_I2C_BOOT.c **** *   because of a timeout.
 200:Generated_Source\PSoC4/I2C_I2C_BOOT.c **** *
 201:Generated_Source\PSoC4/I2C_I2C_BOOT.c **** *  \return
 202:Generated_Source\PSoC4/I2C_I2C_BOOT.c **** *   Returns CYRET_SUCCESS if no problem was encountered or returns the value
ARM GAS  C:\Users\Stephen\AppData\Local\Temp\ccRNJVks.s 			page 5


 203:Generated_Source\PSoC4/I2C_I2C_BOOT.c **** *   that best describes the problem. For more information refer to the
 204:Generated_Source\PSoC4/I2C_I2C_BOOT.c **** *   "Return Codes" section of the System Reference Guide.
 205:Generated_Source\PSoC4/I2C_I2C_BOOT.c **** *
 206:Generated_Source\PSoC4/I2C_I2C_BOOT.c **** * \globalvars
 207:Generated_Source\PSoC4/I2C_I2C_BOOT.c **** *  I2C_applyBuffer - the flag to release the buffer with
 208:Generated_Source\PSoC4/I2C_I2C_BOOT.c **** *  to be read by the host.
 209:Generated_Source\PSoC4/I2C_I2C_BOOT.c **** *
 210:Generated_Source\PSoC4/I2C_I2C_BOOT.c **** *******************************************************************************/
 211:Generated_Source\PSoC4/I2C_I2C_BOOT.c **** cystatus I2C_I2CCyBtldrCommWrite(const uint8 pData[], uint16 size, uint16 * count, uint8 timeOut)
 212:Generated_Source\PSoC4/I2C_I2C_BOOT.c **** {
 213:Generated_Source\PSoC4/I2C_I2C_BOOT.c ****     cystatus status;
 214:Generated_Source\PSoC4/I2C_I2C_BOOT.c **** 
 215:Generated_Source\PSoC4/I2C_I2C_BOOT.c ****     status = CYRET_BAD_PARAM;
 216:Generated_Source\PSoC4/I2C_I2C_BOOT.c **** 
 217:Generated_Source\PSoC4/I2C_I2C_BOOT.c ****     if ((NULL != pData) && (size > 0u))
 218:Generated_Source\PSoC4/I2C_I2C_BOOT.c ****     {
 219:Generated_Source\PSoC4/I2C_I2C_BOOT.c ****         /* Copy response into read buffer */
 220:Generated_Source\PSoC4/I2C_I2C_BOOT.c ****         *count = size;
 221:Generated_Source\PSoC4/I2C_I2C_BOOT.c ****         (void) memcpy((void *) I2C_slReadBuf, (const void *) pData, (uint32) size);
 222:Generated_Source\PSoC4/I2C_I2C_BOOT.c **** 
 223:Generated_Source\PSoC4/I2C_I2C_BOOT.c ****         /* Read buffer is ready to be released to host */
 224:Generated_Source\PSoC4/I2C_I2C_BOOT.c ****         I2C_applyBuffer = (uint32) size;
 225:Generated_Source\PSoC4/I2C_I2C_BOOT.c **** 
 226:Generated_Source\PSoC4/I2C_I2C_BOOT.c ****         if (0u != timeOut)
 227:Generated_Source\PSoC4/I2C_I2C_BOOT.c ****         {
 228:Generated_Source\PSoC4/I2C_I2C_BOOT.c ****             /* Suppress compiler warning */
 229:Generated_Source\PSoC4/I2C_I2C_BOOT.c ****         }
 230:Generated_Source\PSoC4/I2C_I2C_BOOT.c **** 
 231:Generated_Source\PSoC4/I2C_I2C_BOOT.c ****         status = CYRET_SUCCESS;
 232:Generated_Source\PSoC4/I2C_I2C_BOOT.c ****     }
 233:Generated_Source\PSoC4/I2C_I2C_BOOT.c **** 
 234:Generated_Source\PSoC4/I2C_I2C_BOOT.c ****     return(status);
 235:Generated_Source\PSoC4/I2C_I2C_BOOT.c **** }
 236:Generated_Source\PSoC4/I2C_I2C_BOOT.c **** 
 237:Generated_Source\PSoC4/I2C_I2C_BOOT.c **** 
 238:Generated_Source\PSoC4/I2C_I2C_BOOT.c **** /*******************************************************************************
 239:Generated_Source\PSoC4/I2C_I2C_BOOT.c **** * Function Name: I2C_I2CResposeInsert
 240:Generated_Source\PSoC4/I2C_I2C_BOOT.c **** ****************************************************************************//**
 241:Generated_Source\PSoC4/I2C_I2C_BOOT.c **** *
 242:Generated_Source\PSoC4/I2C_I2C_BOOT.c **** *  Releases the read buffer to be read when a response is copied to the buffer
 243:Generated_Source\PSoC4/I2C_I2C_BOOT.c **** *  and a new read transaction starts.
 244:Generated_Source\PSoC4/I2C_I2C_BOOT.c **** *  Closes the read buffer when write transaction is started.
 245:Generated_Source\PSoC4/I2C_I2C_BOOT.c **** *
 246:Generated_Source\PSoC4/I2C_I2C_BOOT.c **** * \globalvars
 247:Generated_Source\PSoC4/I2C_I2C_BOOT.c **** *  I2C_applyBuffer - the flag to release the buffer with a response
 248:Generated_Source\PSoC4/I2C_I2C_BOOT.c **** *  to be read by the host.
 249:Generated_Source\PSoC4/I2C_I2C_BOOT.c **** *
 250:Generated_Source\PSoC4/I2C_I2C_BOOT.c **** *******************************************************************************/
 251:Generated_Source\PSoC4/I2C_I2C_BOOT.c **** static void I2C_I2CResposeInsert(void)
 252:Generated_Source\PSoC4/I2C_I2C_BOOT.c **** {
  27              		.loc 1 252 0
  28              		.cfi_startproc
  29              		@ args = 0, pretend = 0, frame = 0
  30              		@ frame_needed = 0, uses_anonymous_args = 0
  31              		@ link register save eliminated.
 253:Generated_Source\PSoC4/I2C_I2C_BOOT.c ****     if (I2C_CHECK_INTR_SLAVE_MASKED(I2C_INTR_SLAVE_I2C_ADDR_MATCH))
  32              		.loc 1 253 0
ARM GAS  C:\Users\Stephen\AppData\Local\Temp\ccRNJVks.s 			page 6


  33 0000 0D4B     		ldr	r3, .L12
  34 0002 1B68     		ldr	r3, [r3]
  35 0004 5B06     		lsls	r3, r3, #25
  36 0006 15D5     		bpl	.L1
 254:Generated_Source\PSoC4/I2C_I2C_BOOT.c ****     {
 255:Generated_Source\PSoC4/I2C_I2C_BOOT.c ****         if (I2C_CHECK_I2C_STATUS(I2C_I2C_STATUS_S_READ))
  37              		.loc 1 255 0
  38 0008 0C4B     		ldr	r3, .L12+4
  39 000a 1B68     		ldr	r3, [r3]
  40 000c DB06     		lsls	r3, r3, #27
  41 000e 09D5     		bpl	.L3
  42              	.LBB4:
 256:Generated_Source\PSoC4/I2C_I2C_BOOT.c ****         {
 257:Generated_Source\PSoC4/I2C_I2C_BOOT.c ****             /* Address phase, host reads: release read buffer */
 258:Generated_Source\PSoC4/I2C_I2C_BOOT.c ****             if (0u != I2C_applyBuffer)
  43              		.loc 1 258 0
  44 0010 0B4B     		ldr	r3, .L12+8
  45 0012 1A68     		ldr	r2, [r3]
  46 0014 002A     		cmp	r2, #0
  47 0016 0DD0     		beq	.L1
 259:Generated_Source\PSoC4/I2C_I2C_BOOT.c ****             {
 260:Generated_Source\PSoC4/I2C_I2C_BOOT.c ****                 I2C_slRdBufSize  = I2C_applyBuffer;
  48              		.loc 1 260 0
  49 0018 0A49     		ldr	r1, .L12+12
  50 001a 0A60     		str	r2, [r1]
 261:Generated_Source\PSoC4/I2C_I2C_BOOT.c ****                 I2C_slRdBufIndex = 0u;
  51              		.loc 1 261 0
  52 001c 0022     		movs	r2, #0
  53 001e 0A49     		ldr	r1, .L12+16
  54 0020 0A60     		str	r2, [r1]
  55 0022 06E0     		b	.L10
  56              	.L3:
  57              	.LBE4:
 262:Generated_Source\PSoC4/I2C_I2C_BOOT.c ****                 I2C_applyBuffer  = 0u;
 263:Generated_Source\PSoC4/I2C_I2C_BOOT.c ****             }
 264:Generated_Source\PSoC4/I2C_I2C_BOOT.c ****         }
 265:Generated_Source\PSoC4/I2C_I2C_BOOT.c ****         else
 266:Generated_Source\PSoC4/I2C_I2C_BOOT.c ****         {
 267:Generated_Source\PSoC4/I2C_I2C_BOOT.c ****             /* Address phase, host writes: close read buffer */
 268:Generated_Source\PSoC4/I2C_I2C_BOOT.c ****             if (I2C_slRdBufIndex != I2C_slRdBufSize)
  58              		.loc 1 268 0
  59 0024 084B     		ldr	r3, .L12+16
  60 0026 074A     		ldr	r2, .L12+12
  61 0028 1868     		ldr	r0, [r3]
  62 002a 1168     		ldr	r1, [r2]
  63 002c 8842     		cmp	r0, r1
  64 002e 01D0     		beq	.L1
 269:Generated_Source\PSoC4/I2C_I2C_BOOT.c ****             {
 270:Generated_Source\PSoC4/I2C_I2C_BOOT.c ****                 I2C_slRdBufIndex = I2C_slRdBufSize;
  65              		.loc 1 270 0
  66 0030 1268     		ldr	r2, [r2]
  67              	.L10:
  68 0032 1A60     		str	r2, [r3]
  69              	.L1:
 271:Generated_Source\PSoC4/I2C_I2C_BOOT.c ****             }
 272:Generated_Source\PSoC4/I2C_I2C_BOOT.c ****         }
 273:Generated_Source\PSoC4/I2C_I2C_BOOT.c ****     }
ARM GAS  C:\Users\Stephen\AppData\Local\Temp\ccRNJVks.s 			page 7


 274:Generated_Source\PSoC4/I2C_I2C_BOOT.c **** }
  70              		.loc 1 274 0
  71              		@ sp needed
  72 0034 7047     		bx	lr
  73              	.L13:
  74 0036 C046     		.align	2
  75              	.L12:
  76 0038 4C0F0940 		.word	1074335564
  77 003c 64000940 		.word	1074331748
  78 0040 00000000 		.word	.LANCHOR0
  79 0044 00000000 		.word	I2C_slRdBufSize
  80 0048 00000000 		.word	I2C_slRdBufIndex
  81              		.cfi_endproc
  82              	.LFE6:
  83              		.size	I2C_I2CResposeInsert, .-I2C_I2CResposeInsert
  84              		.section	.text.I2C_I2CCyBtldrCommStart,"ax",%progbits
  85              		.align	1
  86              		.global	I2C_I2CCyBtldrCommStart
  87              		.code	16
  88              		.thumb_func
  89              		.type	I2C_I2CCyBtldrCommStart, %function
  90              	I2C_I2CCyBtldrCommStart:
  91              	.LFB1:
  61:Generated_Source\PSoC4/I2C_I2C_BOOT.c ****     I2C_I2CSlaveInitWriteBuf(I2C_slWriteBuf, I2C_I2C_BTLDR_SIZEOF_WRITE_BUFFER);
  92              		.loc 1 61 0
  93              		.cfi_startproc
  94              		@ args = 0, pretend = 0, frame = 0
  95              		@ frame_needed = 0, uses_anonymous_args = 0
  96 0000 10B5     		push	{r4, lr}
  97              		.cfi_def_cfa_offset 8
  98              		.cfi_offset 4, -8
  99              		.cfi_offset 14, -4
  62:Generated_Source\PSoC4/I2C_I2C_BOOT.c ****     I2C_I2CSlaveInitReadBuf (I2C_slReadBuf, 0u);
 100              		.loc 1 62 0
 101 0002 094C     		ldr	r4, .L15
 102 0004 4021     		movs	r1, #64
 103 0006 201D     		adds	r0, r4, #4
 104 0008 FFF7FEFF 		bl	I2C_I2CSlaveInitWriteBuf
 105              	.LVL0:
  63:Generated_Source\PSoC4/I2C_I2C_BOOT.c **** 
 106              		.loc 1 63 0
 107 000c 2000     		movs	r0, r4
 108 000e 0021     		movs	r1, #0
 109 0010 4430     		adds	r0, r0, #68
 110 0012 FFF7FEFF 		bl	I2C_I2CSlaveInitReadBuf
 111              	.LVL1:
  65:Generated_Source\PSoC4/I2C_I2C_BOOT.c ****     I2C_applyBuffer = 0u;
 112              		.loc 1 65 0
 113 0016 0548     		ldr	r0, .L15+4
 114 0018 FFF7FEFF 		bl	I2C_SetCustomInterruptHandler
 115              	.LVL2:
  66:Generated_Source\PSoC4/I2C_I2C_BOOT.c **** 
 116              		.loc 1 66 0
 117 001c 0023     		movs	r3, #0
  69:Generated_Source\PSoC4/I2C_I2C_BOOT.c **** 
 118              		.loc 1 69 0
 119              		@ sp needed
ARM GAS  C:\Users\Stephen\AppData\Local\Temp\ccRNJVks.s 			page 8


  66:Generated_Source\PSoC4/I2C_I2C_BOOT.c **** 
 120              		.loc 1 66 0
 121 001e 2360     		str	r3, [r4]
  68:Generated_Source\PSoC4/I2C_I2C_BOOT.c **** }
 122              		.loc 1 68 0
 123 0020 FFF7FEFF 		bl	I2C_Start
 124              	.LVL3:
  69:Generated_Source\PSoC4/I2C_I2C_BOOT.c **** 
 125              		.loc 1 69 0
 126 0024 10BD     		pop	{r4, pc}
 127              	.L16:
 128 0026 C046     		.align	2
 129              	.L15:
 130 0028 00000000 		.word	.LANCHOR0
 131 002c 00000000 		.word	I2C_I2CResposeInsert
 132              		.cfi_endproc
 133              	.LFE1:
 134              		.size	I2C_I2CCyBtldrCommStart, .-I2C_I2CCyBtldrCommStart
 135              		.section	.text.I2C_I2CCyBtldrCommStop,"ax",%progbits
 136              		.align	1
 137              		.global	I2C_I2CCyBtldrCommStop
 138              		.code	16
 139              		.thumb_func
 140              		.type	I2C_I2CCyBtldrCommStop, %function
 141              	I2C_I2CCyBtldrCommStop:
 142              	.LFB2:
  80:Generated_Source\PSoC4/I2C_I2C_BOOT.c ****     I2C_Stop();
 143              		.loc 1 80 0
 144              		.cfi_startproc
 145              		@ args = 0, pretend = 0, frame = 0
 146              		@ frame_needed = 0, uses_anonymous_args = 0
 147 0000 10B5     		push	{r4, lr}
 148              		.cfi_def_cfa_offset 8
 149              		.cfi_offset 4, -8
 150              		.cfi_offset 14, -4
  81:Generated_Source\PSoC4/I2C_I2C_BOOT.c **** }
 151              		.loc 1 81 0
 152 0002 FFF7FEFF 		bl	I2C_Stop
 153              	.LVL4:
  82:Generated_Source\PSoC4/I2C_I2C_BOOT.c **** 
 154              		.loc 1 82 0
 155              		@ sp needed
 156 0006 10BD     		pop	{r4, pc}
 157              		.cfi_endproc
 158              	.LFE2:
 159              		.size	I2C_I2CCyBtldrCommStop, .-I2C_I2CCyBtldrCommStop
 160              		.section	.text.I2C_I2CCyBtldrCommReset,"ax",%progbits
 161              		.align	1
 162              		.global	I2C_I2CCyBtldrCommReset
 163              		.code	16
 164              		.thumb_func
 165              		.type	I2C_I2CCyBtldrCommReset, %function
 166              	I2C_I2CCyBtldrCommReset:
 167              	.LFB3:
 102:Generated_Source\PSoC4/I2C_I2C_BOOT.c ****     /* Make read buffer full */
 168              		.loc 1 102 0
 169              		.cfi_startproc
ARM GAS  C:\Users\Stephen\AppData\Local\Temp\ccRNJVks.s 			page 9


 170              		@ args = 0, pretend = 0, frame = 0
 171              		@ frame_needed = 0, uses_anonymous_args = 0
 172              		@ link register save eliminated.
 104:Generated_Source\PSoC4/I2C_I2C_BOOT.c **** 
 173              		.loc 1 104 0
 174 0000 0023     		movs	r3, #0
 175 0002 044A     		ldr	r2, .L19
 112:Generated_Source\PSoC4/I2C_I2C_BOOT.c **** 
 176              		.loc 1 112 0
 177              		@ sp needed
 104:Generated_Source\PSoC4/I2C_I2C_BOOT.c **** 
 178              		.loc 1 104 0
 179 0004 1360     		str	r3, [r2]
 107:Generated_Source\PSoC4/I2C_I2C_BOOT.c ****     I2C_slWrBufIndex = 0u;
 180              		.loc 1 107 0
 181 0006 044A     		ldr	r2, .L19+4
 182 0008 1360     		str	r3, [r2]
 108:Generated_Source\PSoC4/I2C_I2C_BOOT.c **** 
 183              		.loc 1 108 0
 184 000a 044A     		ldr	r2, .L19+8
 185 000c 1360     		str	r3, [r2]
 111:Generated_Source\PSoC4/I2C_I2C_BOOT.c **** }
 186              		.loc 1 111 0
 187 000e 044A     		ldr	r2, .L19+12
 188 0010 1370     		strb	r3, [r2]
 112:Generated_Source\PSoC4/I2C_I2C_BOOT.c **** 
 189              		.loc 1 112 0
 190 0012 7047     		bx	lr
 191              	.L20:
 192              		.align	2
 193              	.L19:
 194 0014 00000000 		.word	I2C_slRdBufSize
 195 0018 00000000 		.word	I2C_slRdBufIndex
 196 001c 00000000 		.word	I2C_slWrBufIndex
 197 0020 00000000 		.word	I2C_slStatus
 198              		.cfi_endproc
 199              	.LFE3:
 200              		.size	I2C_I2CCyBtldrCommReset, .-I2C_I2CCyBtldrCommReset
 201              		.section	.text.I2C_I2CCyBtldrCommRead,"ax",%progbits
 202              		.align	1
 203              		.global	I2C_I2CCyBtldrCommRead
 204              		.code	16
 205              		.thumb_func
 206              		.type	I2C_I2CCyBtldrCommRead, %function
 207              	I2C_I2CCyBtldrCommRead:
 208              	.LFB4:
 144:Generated_Source\PSoC4/I2C_I2C_BOOT.c ****     cystatus status;
 209              		.loc 1 144 0
 210              		.cfi_startproc
 211              		@ args = 0, pretend = 0, frame = 8
 212              		@ frame_needed = 0, uses_anonymous_args = 0
 213              	.LVL5:
 214 0000 F7B5     		push	{r0, r1, r2, r4, r5, r6, r7, lr}
 215              		.cfi_def_cfa_offset 32
 216              		.cfi_offset 0, -32
 217              		.cfi_offset 1, -28
 218              		.cfi_offset 2, -24
ARM GAS  C:\Users\Stephen\AppData\Local\Temp\ccRNJVks.s 			page 10


 219              		.cfi_offset 4, -20
 220              		.cfi_offset 5, -16
 221              		.cfi_offset 6, -12
 222              		.cfi_offset 7, -8
 223              		.cfi_offset 14, -4
 144:Generated_Source\PSoC4/I2C_I2C_BOOT.c ****     cystatus status;
 224              		.loc 1 144 0
 225 0002 0600     		movs	r6, r0
 226 0004 0D00     		movs	r5, r1
 227 0006 0192     		str	r2, [sp, #4]
 148:Generated_Source\PSoC4/I2C_I2C_BOOT.c **** 
 228              		.loc 1 148 0
 229 0008 0120     		movs	r0, #1
 230              	.LVL6:
 150:Generated_Source\PSoC4/I2C_I2C_BOOT.c ****     {
 231              		.loc 1 150 0
 232 000a 002E     		cmp	r6, #0
 233 000c 24D0     		beq	.L22
 150:Generated_Source\PSoC4/I2C_I2C_BOOT.c ****     {
 234              		.loc 1 150 0 is_stmt 0 discriminator 1
 235 000e 0029     		cmp	r1, #0
 236 0010 22D0     		beq	.L22
 237              	.LVL7:
 153:Generated_Source\PSoC4/I2C_I2C_BOOT.c **** 
 238              		.loc 1 153 0 is_stmt 1
 239 0012 0A24     		movs	r4, #10
 240 0014 1027     		movs	r7, #16
 241 0016 5C43     		muls	r4, r3
 242              	.LVL8:
 243              	.L23:
 155:Generated_Source\PSoC4/I2C_I2C_BOOT.c ****         {
 244              		.loc 1 155 0
 245 0018 002C     		cmp	r4, #0
 246 001a 1CD0     		beq	.L30
 158:Generated_Source\PSoC4/I2C_I2C_BOOT.c ****             {
 247              		.loc 1 158 0
 248 001c 0F48     		ldr	r0, .L31
 249 001e 0378     		ldrb	r3, [r0]
 250 0020 3B42     		tst	r3, r7
 251 0022 13D0     		beq	.L24
 161:Generated_Source\PSoC4/I2C_I2C_BOOT.c **** 
 252              		.loc 1 161 0
 253 0024 0E4A     		ldr	r2, .L31+4
 254 0026 0199     		ldr	r1, [sp, #4]
 255 0028 1368     		ldr	r3, [r2]
 256 002a 9BB2     		uxth	r3, r3
 257 002c 0B80     		strh	r3, [r1]
 164:Generated_Source\PSoC4/I2C_I2C_BOOT.c ****                 I2C_slWrBufIndex = 0u;
 258              		.loc 1 164 0
 259 002e 0021     		movs	r1, #0
 260 0030 0170     		strb	r1, [r0]
 165:Generated_Source\PSoC4/I2C_I2C_BOOT.c **** 
 261              		.loc 1 165 0
 262 0032 1160     		str	r1, [r2]
 168:Generated_Source\PSoC4/I2C_I2C_BOOT.c ****                                               I2C_BYTES_TO_COPY(*count, size));
 263              		.loc 1 168 0
 264 0034 2A1C     		adds	r2, r5, #0
ARM GAS  C:\Users\Stephen\AppData\Local\Temp\ccRNJVks.s 			page 11


 265 0036 9D42     		cmp	r5, r3
 266 0038 00D9     		bls	.L25
 267 003a 1A1C     		adds	r2, r3, #0
 268              	.L25:
 269 003c 0949     		ldr	r1, .L31+8
 270 003e 92B2     		uxth	r2, r2
 271 0040 0431     		adds	r1, r1, #4
 272 0042 3000     		movs	r0, r6
 273 0044 FFF7FEFF 		bl	memcpy
 274              	.LVL9:
 171:Generated_Source\PSoC4/I2C_I2C_BOOT.c ****                 break;
 275              		.loc 1 171 0
 276 0048 0020     		movs	r0, #0
 172:Generated_Source\PSoC4/I2C_I2C_BOOT.c ****             }
 277              		.loc 1 172 0
 278 004a 05E0     		b	.L22
 279              	.LVL10:
 280              	.L24:
 175:Generated_Source\PSoC4/I2C_I2C_BOOT.c ****             --timeoutMs;
 281              		.loc 1 175 0
 282 004c 0120     		movs	r0, #1
 283 004e FFF7FEFF 		bl	CyDelay
 284              	.LVL11:
 176:Generated_Source\PSoC4/I2C_I2C_BOOT.c ****         }
 285              		.loc 1 176 0
 286 0052 013C     		subs	r4, r4, #1
 287              	.LVL12:
 288 0054 E0E7     		b	.L23
 289              	.L30:
 152:Generated_Source\PSoC4/I2C_I2C_BOOT.c ****         timeoutMs = ((uint32) 10u * timeOut); /* Convert from 10mS check to 1mS checks */
 290              		.loc 1 152 0
 291 0056 1020     		movs	r0, #16
 292              	.LVL13:
 293              	.L22:
 181:Generated_Source\PSoC4/I2C_I2C_BOOT.c **** 
 294              		.loc 1 181 0
 295              		@ sp needed
 296              	.LVL14:
 297 0058 FEBD     		pop	{r1, r2, r3, r4, r5, r6, r7, pc}
 298              	.L32:
 299 005a C046     		.align	2
 300              	.L31:
 301 005c 00000000 		.word	I2C_slStatus
 302 0060 00000000 		.word	I2C_slWrBufIndex
 303 0064 00000000 		.word	.LANCHOR0
 304              		.cfi_endproc
 305              	.LFE4:
 306              		.size	I2C_I2CCyBtldrCommRead, .-I2C_I2CCyBtldrCommRead
 307              		.section	.text.I2C_I2CCyBtldrCommWrite,"ax",%progbits
 308              		.align	1
 309              		.global	I2C_I2CCyBtldrCommWrite
 310              		.code	16
 311              		.thumb_func
 312              		.type	I2C_I2CCyBtldrCommWrite, %function
 313              	I2C_I2CCyBtldrCommWrite:
 314              	.LFB5:
 212:Generated_Source\PSoC4/I2C_I2C_BOOT.c ****     cystatus status;
ARM GAS  C:\Users\Stephen\AppData\Local\Temp\ccRNJVks.s 			page 12


 315              		.loc 1 212 0
 316              		.cfi_startproc
 317              		@ args = 0, pretend = 0, frame = 0
 318              		@ frame_needed = 0, uses_anonymous_args = 0
 319              	.LVL15:
 320 0000 70B5     		push	{r4, r5, r6, lr}
 321              		.cfi_def_cfa_offset 16
 322              		.cfi_offset 4, -16
 323              		.cfi_offset 5, -12
 324              		.cfi_offset 6, -8
 325              		.cfi_offset 14, -4
 215:Generated_Source\PSoC4/I2C_I2C_BOOT.c **** 
 326              		.loc 1 215 0
 327 0002 0123     		movs	r3, #1
 328              	.LVL16:
 212:Generated_Source\PSoC4/I2C_I2C_BOOT.c ****     cystatus status;
 329              		.loc 1 212 0
 330 0004 0C00     		movs	r4, r1
 217:Generated_Source\PSoC4/I2C_I2C_BOOT.c ****     {
 331              		.loc 1 217 0
 332 0006 0028     		cmp	r0, #0
 333 0008 0CD0     		beq	.L34
 217:Generated_Source\PSoC4/I2C_I2C_BOOT.c ****     {
 334              		.loc 1 217 0 is_stmt 0 discriminator 1
 335 000a 0029     		cmp	r1, #0
 336 000c 0AD0     		beq	.L34
 221:Generated_Source\PSoC4/I2C_I2C_BOOT.c **** 
 337              		.loc 1 221 0 is_stmt 1
 338 000e 064D     		ldr	r5, .L38
 220:Generated_Source\PSoC4/I2C_I2C_BOOT.c ****         (void) memcpy((void *) I2C_slReadBuf, (const void *) pData, (uint32) size);
 339              		.loc 1 220 0
 340 0010 1180     		strh	r1, [r2]
 221:Generated_Source\PSoC4/I2C_I2C_BOOT.c **** 
 341              		.loc 1 221 0
 342 0012 2B00     		movs	r3, r5
 343 0014 4433     		adds	r3, r3, #68
 344 0016 0A00     		movs	r2, r1
 345              	.LVL17:
 346 0018 0100     		movs	r1, r0
 347              	.LVL18:
 348 001a 1800     		movs	r0, r3
 349              	.LVL19:
 350 001c FFF7FEFF 		bl	memcpy
 351              	.LVL20:
 231:Generated_Source\PSoC4/I2C_I2C_BOOT.c ****     }
 352              		.loc 1 231 0
 353 0020 0023     		movs	r3, #0
 224:Generated_Source\PSoC4/I2C_I2C_BOOT.c **** 
 354              		.loc 1 224 0
 355 0022 2C60     		str	r4, [r5]
 356              	.LVL21:
 357              	.L34:
 235:Generated_Source\PSoC4/I2C_I2C_BOOT.c **** 
 358              		.loc 1 235 0
 359 0024 1800     		movs	r0, r3
 360              		@ sp needed
 361 0026 70BD     		pop	{r4, r5, r6, pc}
ARM GAS  C:\Users\Stephen\AppData\Local\Temp\ccRNJVks.s 			page 13


 362              	.L39:
 363              		.align	2
 364              	.L38:
 365 0028 00000000 		.word	.LANCHOR0
 366              		.cfi_endproc
 367              	.LFE5:
 368              		.size	I2C_I2CCyBtldrCommWrite, .-I2C_I2CCyBtldrCommWrite
 369              		.bss
 370              		.align	2
 371              		.set	.LANCHOR0,. + 0
 372              		.type	I2C_applyBuffer, %object
 373              		.size	I2C_applyBuffer, 4
 374              	I2C_applyBuffer:
 375 0000 00000000 		.space	4
 376              		.type	I2C_slWriteBuf, %object
 377              		.size	I2C_slWriteBuf, 64
 378              	I2C_slWriteBuf:
 379 0004 00000000 		.space	64
 379      00000000 
 379      00000000 
 379      00000000 
 379      00000000 
 380              		.type	I2C_slReadBuf, %object
 381              		.size	I2C_slReadBuf, 64
 382              	I2C_slReadBuf:
 383 0044 00000000 		.space	64
 383      00000000 
 383      00000000 
 383      00000000 
 383      00000000 
 384              		.text
 385              	.Letext0:
 386              		.file 2 "Generated_Source\\PSoC4/cytypes.h"
 387              		.file 3 "Generated_Source\\PSoC4\\I2C_I2C_PVT.h"
 388              		.file 4 "Generated_Source\\PSoC4\\I2C_I2C.h"
 389              		.file 5 "Generated_Source\\PSoC4\\I2C.h"
 390              		.file 6 "Generated_Source\\PSoC4/CyLib.h"