ARM GAS  C:\Users\Minakian\AppData\Local\Temp\ccs5y3DW.s 			page 1


   1              		.syntax unified
   2              		.cpu cortex-m0plus
   3              		.fpu softvfp
   4              		.eabi_attribute 20, 1
   5              		.eabi_attribute 21, 1
   6              		.eabi_attribute 23, 3
   7              		.eabi_attribute 24, 1
   8              		.eabi_attribute 25, 1
   9              		.eabi_attribute 26, 1
  10              		.eabi_attribute 30, 4
  11              		.eabi_attribute 34, 0
  12              		.eabi_attribute 18, 4
  13              		.thumb
  14              		.syntax unified
  15              		.file	"I2C_I2C_SLAVE.c"
  16              		.text
  17              	.Ltext0:
  18              		.cfi_sections	.debug_frame
  19              		.section	.text.I2C_I2CSlaveStatus,"ax",%progbits
  20              		.align	1
  21              		.global	I2C_I2CSlaveStatus
  22              		.code	16
  23              		.thumb_func
  24              		.type	I2C_I2CSlaveStatus, %function
  25              	I2C_I2CSlaveStatus:
  26              	.LFB1:
  27              		.file 1 "Generated_Source\\PSoC4\\I2C_I2C_SLAVE.c"
   1:Generated_Source\PSoC4/I2C_I2C_SLAVE.c **** /***************************************************************************//**
   2:Generated_Source\PSoC4/I2C_I2C_SLAVE.c **** * \file I2C_I2C_SLAVE.c
   3:Generated_Source\PSoC4/I2C_I2C_SLAVE.c **** * \version 3.20
   4:Generated_Source\PSoC4/I2C_I2C_SLAVE.c **** *
   5:Generated_Source\PSoC4/I2C_I2C_SLAVE.c **** * \brief
   6:Generated_Source\PSoC4/I2C_I2C_SLAVE.c **** *  This file provides the source code to the API for the SCB Component in
   7:Generated_Source\PSoC4/I2C_I2C_SLAVE.c **** *  I2C Slave mode.
   8:Generated_Source\PSoC4/I2C_I2C_SLAVE.c **** *
   9:Generated_Source\PSoC4/I2C_I2C_SLAVE.c **** * Note:
  10:Generated_Source\PSoC4/I2C_I2C_SLAVE.c **** *
  11:Generated_Source\PSoC4/I2C_I2C_SLAVE.c **** *******************************************************************************
  12:Generated_Source\PSoC4/I2C_I2C_SLAVE.c **** * \copyright
  13:Generated_Source\PSoC4/I2C_I2C_SLAVE.c **** * Copyright 2013-2016, Cypress Semiconductor Corporation.  All rights reserved.
  14:Generated_Source\PSoC4/I2C_I2C_SLAVE.c **** * You may use this file only in accordance with the license, terms, conditions,
  15:Generated_Source\PSoC4/I2C_I2C_SLAVE.c **** * disclaimers, and limitations in the end user license agreement accompanying
  16:Generated_Source\PSoC4/I2C_I2C_SLAVE.c **** * the software package with which this file was provided.
  17:Generated_Source\PSoC4/I2C_I2C_SLAVE.c **** *******************************************************************************/
  18:Generated_Source\PSoC4/I2C_I2C_SLAVE.c **** 
  19:Generated_Source\PSoC4/I2C_I2C_SLAVE.c **** #include "I2C_I2C_PVT.h"
  20:Generated_Source\PSoC4/I2C_I2C_SLAVE.c **** 
  21:Generated_Source\PSoC4/I2C_I2C_SLAVE.c **** #if(I2C_I2C_SLAVE_CONST)
  22:Generated_Source\PSoC4/I2C_I2C_SLAVE.c **** 
  23:Generated_Source\PSoC4/I2C_I2C_SLAVE.c **** /***************************************
  24:Generated_Source\PSoC4/I2C_I2C_SLAVE.c **** *      I2C Slave Private Vars
  25:Generated_Source\PSoC4/I2C_I2C_SLAVE.c **** ***************************************/
  26:Generated_Source\PSoC4/I2C_I2C_SLAVE.c **** 
  27:Generated_Source\PSoC4/I2C_I2C_SLAVE.c **** volatile uint8 I2C_slStatus;          /* Slave Status */
  28:Generated_Source\PSoC4/I2C_I2C_SLAVE.c **** 
  29:Generated_Source\PSoC4/I2C_I2C_SLAVE.c **** /* Receive buffer variables */
  30:Generated_Source\PSoC4/I2C_I2C_SLAVE.c **** volatile uint8 * I2C_slWrBufPtr;      /* Pointer to Receive buffer  */
ARM GAS  C:\Users\Minakian\AppData\Local\Temp\ccs5y3DW.s 			page 2


  31:Generated_Source\PSoC4/I2C_I2C_SLAVE.c **** volatile uint32  I2C_slWrBufSize;     /* Slave Receive buffer size  */
  32:Generated_Source\PSoC4/I2C_I2C_SLAVE.c **** volatile uint32  I2C_slWrBufIndex;    /* Slave Receive buffer Index */
  33:Generated_Source\PSoC4/I2C_I2C_SLAVE.c **** 
  34:Generated_Source\PSoC4/I2C_I2C_SLAVE.c **** /* Transmit buffer variables */
  35:Generated_Source\PSoC4/I2C_I2C_SLAVE.c **** volatile uint8 * I2C_slRdBufPtr;      /* Pointer to Transmit buffer  */
  36:Generated_Source\PSoC4/I2C_I2C_SLAVE.c **** volatile uint32  I2C_slRdBufSize;     /* Slave Transmit buffer size  */
  37:Generated_Source\PSoC4/I2C_I2C_SLAVE.c **** volatile uint32  I2C_slRdBufIndex;    /* Slave Transmit buffer Index */
  38:Generated_Source\PSoC4/I2C_I2C_SLAVE.c **** volatile uint32  I2C_slRdBufIndexTmp; /* Slave Transmit buffer Index Tmp */
  39:Generated_Source\PSoC4/I2C_I2C_SLAVE.c **** volatile uint8   I2C_slOverFlowCount; /* Slave Transmit Overflow counter */
  40:Generated_Source\PSoC4/I2C_I2C_SLAVE.c **** 
  41:Generated_Source\PSoC4/I2C_I2C_SLAVE.c **** #if (I2C_I2C_CUSTOM_ADDRESS_HANDLER_CONST)
  42:Generated_Source\PSoC4/I2C_I2C_SLAVE.c **** 
  43:Generated_Source\PSoC4/I2C_I2C_SLAVE.c ****     uint32 (*I2C_customAddressHandler)(void) = NULL;
  44:Generated_Source\PSoC4/I2C_I2C_SLAVE.c **** 
  45:Generated_Source\PSoC4/I2C_I2C_SLAVE.c ****     /*******************************************************************************
  46:Generated_Source\PSoC4/I2C_I2C_SLAVE.c ****     * Function Name: I2C_SetI2cAddressCustomInterruptHandler
  47:Generated_Source\PSoC4/I2C_I2C_SLAVE.c ****     ****************************************************************************//**
  48:Generated_Source\PSoC4/I2C_I2C_SLAVE.c ****     *
  49:Generated_Source\PSoC4/I2C_I2C_SLAVE.c ****     *  Registers a function to be called by the I2C slave interrupt handler during
  50:Generated_Source\PSoC4/I2C_I2C_SLAVE.c ****     *  the I2C interrupt address processing. This function should be used when
  51:Generated_Source\PSoC4/I2C_I2C_SLAVE.c ****     *  multiple I2C addresses need to be decoded or general call address supported.
  52:Generated_Source\PSoC4/I2C_I2C_SLAVE.c ****     *  The registered function must return decision whether to ACK or NACK address.
  53:Generated_Source\PSoC4/I2C_I2C_SLAVE.c ****     *  Only one I2C address handler is supported, which is the function provided
  54:Generated_Source\PSoC4/I2C_I2C_SLAVE.c ****     *  by the most recent call.
  55:Generated_Source\PSoC4/I2C_I2C_SLAVE.c ****     *  At initialization time no I2C address handler is registered.
  56:Generated_Source\PSoC4/I2C_I2C_SLAVE.c ****     *
  57:Generated_Source\PSoC4/I2C_I2C_SLAVE.c ****     *  \param func: Pointer to the function to register.
  58:Generated_Source\PSoC4/I2C_I2C_SLAVE.c ****     *   The value NULL indicates to remove the current custom interrupt
  59:Generated_Source\PSoC4/I2C_I2C_SLAVE.c ****     *   handler.
  60:Generated_Source\PSoC4/I2C_I2C_SLAVE.c ****     *   The registered function must return decision whether to ACK or NACK 
  61:Generated_Source\PSoC4/I2C_I2C_SLAVE.c ****     *   accepted address: 0 – ACK, other values – NACK. The registered 
  62:Generated_Source\PSoC4/I2C_I2C_SLAVE.c ****     *   callback function does not perform the ACK/NACK, this operation is 
  63:Generated_Source\PSoC4/I2C_I2C_SLAVE.c ****     *   performed in the I2C ISR.
  64:Generated_Source\PSoC4/I2C_I2C_SLAVE.c ****     *
  65:Generated_Source\PSoC4/I2C_I2C_SLAVE.c ****     *******************************************************************************/
  66:Generated_Source\PSoC4/I2C_I2C_SLAVE.c ****     void I2C_SetI2cAddressCustomInterruptHandler(uint32 (*func) (void))
  67:Generated_Source\PSoC4/I2C_I2C_SLAVE.c ****     {
  68:Generated_Source\PSoC4/I2C_I2C_SLAVE.c ****         /* Register custom address handler */
  69:Generated_Source\PSoC4/I2C_I2C_SLAVE.c ****         I2C_customAddressHandler = func;
  70:Generated_Source\PSoC4/I2C_I2C_SLAVE.c ****     }
  71:Generated_Source\PSoC4/I2C_I2C_SLAVE.c **** #endif /* (I2C_I2C_CUSTOM_ADDRESS_HANDLER_CONST) */
  72:Generated_Source\PSoC4/I2C_I2C_SLAVE.c **** 
  73:Generated_Source\PSoC4/I2C_I2C_SLAVE.c **** 
  74:Generated_Source\PSoC4/I2C_I2C_SLAVE.c **** /*******************************************************************************
  75:Generated_Source\PSoC4/I2C_I2C_SLAVE.c **** * Function Name: I2C_I2CSlaveStatus
  76:Generated_Source\PSoC4/I2C_I2C_SLAVE.c **** ****************************************************************************//**
  77:Generated_Source\PSoC4/I2C_I2C_SLAVE.c **** *
  78:Generated_Source\PSoC4/I2C_I2C_SLAVE.c **** *  Returns the I2C slave's communication status.
  79:Generated_Source\PSoC4/I2C_I2C_SLAVE.c **** *
  80:Generated_Source\PSoC4/I2C_I2C_SLAVE.c **** * \return
  81:Generated_Source\PSoC4/I2C_I2C_SLAVE.c **** *  Current status of I2C slave.
  82:Generated_Source\PSoC4/I2C_I2C_SLAVE.c **** *  This status incorporates read and write status constants. 
  83:Generated_Source\PSoC4/I2C_I2C_SLAVE.c **** *  Each constant is a bit field value. The value returned may have multiple 
  84:Generated_Source\PSoC4/I2C_I2C_SLAVE.c **** *  bits set to indicate the status of the read or write transfer.
  85:Generated_Source\PSoC4/I2C_I2C_SLAVE.c **** *   - I2C_I2C_SSTAT_RD_CMPLT - Slave read transfer complete. 
  86:Generated_Source\PSoC4/I2C_I2C_SLAVE.c **** *     Set when master indicates it is done reading by sending a NAK.
  87:Generated_Source\PSoC4/I2C_I2C_SLAVE.c **** *     The read error condition status bit must be checked to ensure that 
ARM GAS  C:\Users\Minakian\AppData\Local\Temp\ccs5y3DW.s 			page 3


  88:Generated_Source\PSoC4/I2C_I2C_SLAVE.c **** *     the read transfer was completed successfully.
  89:Generated_Source\PSoC4/I2C_I2C_SLAVE.c **** *   - I2C_I2C_SSTAT_RD_BUSY - Slave read transfer is in progress. 
  90:Generated_Source\PSoC4/I2C_I2C_SLAVE.c **** *     Set when master addresses slave with a read, cleared when 
  91:Generated_Source\PSoC4/I2C_I2C_SLAVE.c **** *    I2C_I2C_SSTAT_RD_CMPLT is set.
  92:Generated_Source\PSoC4/I2C_I2C_SLAVE.c **** *   - I2C_I2C_SSTAT_RD_OVFL - Master attempted to read more bytes
  93:Generated_Source\PSoC4/I2C_I2C_SLAVE.c **** *     than are in buffer. Slave continually returns 0xFF byte in this case.
  94:Generated_Source\PSoC4/I2C_I2C_SLAVE.c **** *   - I2C_I2C_SSTAT_RD_ERR - Slave captured error on the bus during 
  95:Generated_Source\PSoC4/I2C_I2C_SLAVE.c **** *     a read transfer. The sources of error are: misplaced Start or Stop 
  96:Generated_Source\PSoC4/I2C_I2C_SLAVE.c **** *     condition or lost arbitration while slave drives SDA.
  97:Generated_Source\PSoC4/I2C_I2C_SLAVE.c **** *   - I2C_I2C_SSTAT_WR_CMPLT - Slave write transfer complete. 
  98:Generated_Source\PSoC4/I2C_I2C_SLAVE.c **** *     Set at reception of a Stop or ReStart condition. The write error condition
  99:Generated_Source\PSoC4/I2C_I2C_SLAVE.c **** *     status bit must be checked to ensure that write transfer was completed
 100:Generated_Source\PSoC4/I2C_I2C_SLAVE.c **** *     successfully.
 101:Generated_Source\PSoC4/I2C_I2C_SLAVE.c **** *   - I2C_I2C_SSTAT_WR_BUSY - Slave write transfer is in progress. 
 102:Generated_Source\PSoC4/I2C_I2C_SLAVE.c **** *     Set when the master addresses the slave with a write, cleared when 
 103:Generated_Source\PSoC4/I2C_I2C_SLAVE.c **** *    I2C_I2C_SSTAT_WR_CMPLT is set.
 104:Generated_Source\PSoC4/I2C_I2C_SLAVE.c **** *   - I2C_I2C_SSTAT_WR_OVFL - Master attempted to write past end of 
 105:Generated_Source\PSoC4/I2C_I2C_SLAVE.c **** *     buffer. Further bytes are ignored.
 106:Generated_Source\PSoC4/I2C_I2C_SLAVE.c **** *   - I2C_I2C_SSTAT_WR_ERR - Slave captured error on the bus during
 107:Generated_Source\PSoC4/I2C_I2C_SLAVE.c **** *     write transfer. The sources of error are: misplaced Start or Stop condition
 108:Generated_Source\PSoC4/I2C_I2C_SLAVE.c **** *     or lost arbitration while slave drives SDA.
 109:Generated_Source\PSoC4/I2C_I2C_SLAVE.c **** *     The write buffer may contain invalid bytes or part of the data transfer when 
 110:Generated_Source\PSoC4/I2C_I2C_SLAVE.c **** *     I2C_I2C_SSTAT_WR_ERR is set. It is recommended to discard write 
 111:Generated_Source\PSoC4/I2C_I2C_SLAVE.c **** *     buffer content in this case.
 112:Generated_Source\PSoC4/I2C_I2C_SLAVE.c **** *
 113:Generated_Source\PSoC4/I2C_I2C_SLAVE.c **** * \globalvars
 114:Generated_Source\PSoC4/I2C_I2C_SLAVE.c **** *  I2C_slStatus  - used to store current status of I2C slave.
 115:Generated_Source\PSoC4/I2C_I2C_SLAVE.c **** *
 116:Generated_Source\PSoC4/I2C_I2C_SLAVE.c **** *******************************************************************************/
 117:Generated_Source\PSoC4/I2C_I2C_SLAVE.c **** uint32 I2C_I2CSlaveStatus(void)
 118:Generated_Source\PSoC4/I2C_I2C_SLAVE.c **** {
  28              		.loc 1 118 0
  29              		.cfi_startproc
  30              		@ args = 0, pretend = 0, frame = 0
  31              		@ frame_needed = 0, uses_anonymous_args = 0
  32              		@ link register save eliminated.
 119:Generated_Source\PSoC4/I2C_I2C_SLAVE.c ****     return((uint32) I2C_slStatus);
  33              		.loc 1 119 0
  34 0000 014B     		ldr	r3, .L2
 120:Generated_Source\PSoC4/I2C_I2C_SLAVE.c **** }
  35              		.loc 1 120 0
  36              		@ sp needed
 119:Generated_Source\PSoC4/I2C_I2C_SLAVE.c ****     return((uint32) I2C_slStatus);
  37              		.loc 1 119 0
  38 0002 1878     		ldrb	r0, [r3]
  39 0004 C0B2     		uxtb	r0, r0
  40              		.loc 1 120 0
  41 0006 7047     		bx	lr
  42              	.L3:
  43              		.align	2
  44              	.L2:
  45 0008 00000000 		.word	I2C_slStatus
  46              		.cfi_endproc
  47              	.LFE1:
  48              		.size	I2C_I2CSlaveStatus, .-I2C_I2CSlaveStatus
  49              		.section	.text.I2C_I2CSlaveClearReadStatus,"ax",%progbits
  50              		.align	1
ARM GAS  C:\Users\Minakian\AppData\Local\Temp\ccs5y3DW.s 			page 4


  51              		.global	I2C_I2CSlaveClearReadStatus
  52              		.code	16
  53              		.thumb_func
  54              		.type	I2C_I2CSlaveClearReadStatus, %function
  55              	I2C_I2CSlaveClearReadStatus:
  56              	.LFB2:
 121:Generated_Source\PSoC4/I2C_I2C_SLAVE.c **** 
 122:Generated_Source\PSoC4/I2C_I2C_SLAVE.c **** 
 123:Generated_Source\PSoC4/I2C_I2C_SLAVE.c **** /*******************************************************************************
 124:Generated_Source\PSoC4/I2C_I2C_SLAVE.c **** * Function Name: I2C_I2CSlaveClearReadStatus
 125:Generated_Source\PSoC4/I2C_I2C_SLAVE.c **** ****************************************************************************//**
 126:Generated_Source\PSoC4/I2C_I2C_SLAVE.c **** *
 127:Generated_Source\PSoC4/I2C_I2C_SLAVE.c **** *  Clears the read status flags and returns their values. No other status flags
 128:Generated_Source\PSoC4/I2C_I2C_SLAVE.c **** *  are affected.
 129:Generated_Source\PSoC4/I2C_I2C_SLAVE.c **** *
 130:Generated_Source\PSoC4/I2C_I2C_SLAVE.c **** * \return
 131:Generated_Source\PSoC4/I2C_I2C_SLAVE.c **** *  Current read status of slave. See the SCB_I2CSlaveStatus() function for 
 132:Generated_Source\PSoC4/I2C_I2C_SLAVE.c **** *  constants.
 133:Generated_Source\PSoC4/I2C_I2C_SLAVE.c **** *
 134:Generated_Source\PSoC4/I2C_I2C_SLAVE.c **** * \sideeffect
 135:Generated_Source\PSoC4/I2C_I2C_SLAVE.c **** *  This function does not clear I2C_I2C_SSTAT_RD_BUSY.
 136:Generated_Source\PSoC4/I2C_I2C_SLAVE.c **** *
 137:Generated_Source\PSoC4/I2C_I2C_SLAVE.c **** * \globalvars
 138:Generated_Source\PSoC4/I2C_I2C_SLAVE.c **** *  I2C_slStatus  - used to store current status of I2C slave.
 139:Generated_Source\PSoC4/I2C_I2C_SLAVE.c **** *
 140:Generated_Source\PSoC4/I2C_I2C_SLAVE.c **** *******************************************************************************/
 141:Generated_Source\PSoC4/I2C_I2C_SLAVE.c **** uint32 I2C_I2CSlaveClearReadStatus(void)
 142:Generated_Source\PSoC4/I2C_I2C_SLAVE.c **** {
  57              		.loc 1 142 0
  58              		.cfi_startproc
  59              		@ args = 0, pretend = 0, frame = 0
  60              		@ frame_needed = 0, uses_anonymous_args = 0
  61 0000 10B5     		push	{r4, lr}
  62              		.cfi_def_cfa_offset 8
  63              		.cfi_offset 4, -8
  64              		.cfi_offset 14, -4
 143:Generated_Source\PSoC4/I2C_I2C_SLAVE.c ****     uint32 status;
 144:Generated_Source\PSoC4/I2C_I2C_SLAVE.c **** 
 145:Generated_Source\PSoC4/I2C_I2C_SLAVE.c ****     I2C_DisableInt();  /* Lock from interruption */
  65              		.loc 1 145 0
  66 0002 0820     		movs	r0, #8
  67 0004 FFF7FEFF 		bl	CyIntDisable
  68              	.LVL0:
 146:Generated_Source\PSoC4/I2C_I2C_SLAVE.c **** 
 147:Generated_Source\PSoC4/I2C_I2C_SLAVE.c ****     /* Mask of transfer complete flag and error status */
 148:Generated_Source\PSoC4/I2C_I2C_SLAVE.c ****     status = ((uint32) I2C_slStatus & I2C_I2C_SSTAT_RD_MASK);
 149:Generated_Source\PSoC4/I2C_I2C_SLAVE.c ****     I2C_slStatus &= (uint8) ~I2C_I2C_SSTAT_RD_CLEAR;
  69              		.loc 1 149 0
  70 0008 0D21     		movs	r1, #13
 148:Generated_Source\PSoC4/I2C_I2C_SLAVE.c ****     I2C_slStatus &= (uint8) ~I2C_I2C_SSTAT_RD_CLEAR;
  71              		.loc 1 148 0
  72 000a 064B     		ldr	r3, .L5
 150:Generated_Source\PSoC4/I2C_I2C_SLAVE.c **** 
 151:Generated_Source\PSoC4/I2C_I2C_SLAVE.c ****     I2C_EnableInt();   /* Release lock */
 152:Generated_Source\PSoC4/I2C_I2C_SLAVE.c **** 
 153:Generated_Source\PSoC4/I2C_I2C_SLAVE.c ****     return(status);
 154:Generated_Source\PSoC4/I2C_I2C_SLAVE.c **** }
ARM GAS  C:\Users\Minakian\AppData\Local\Temp\ccs5y3DW.s 			page 5


  73              		.loc 1 154 0
  74              		@ sp needed
 148:Generated_Source\PSoC4/I2C_I2C_SLAVE.c ****     I2C_slStatus &= (uint8) ~I2C_I2C_SSTAT_RD_CLEAR;
  75              		.loc 1 148 0
  76 000c 1878     		ldrb	r0, [r3]
 149:Generated_Source\PSoC4/I2C_I2C_SLAVE.c **** 
  77              		.loc 1 149 0
  78 000e 1A78     		ldrb	r2, [r3]
 148:Generated_Source\PSoC4/I2C_I2C_SLAVE.c ****     I2C_slStatus &= (uint8) ~I2C_I2C_SSTAT_RD_CLEAR;
  79              		.loc 1 148 0
  80 0010 C4B2     		uxtb	r4, r0
  81              	.LVL1:
 149:Generated_Source\PSoC4/I2C_I2C_SLAVE.c **** 
  82              		.loc 1 149 0
  83 0012 8A43     		bics	r2, r1
 151:Generated_Source\PSoC4/I2C_I2C_SLAVE.c **** 
  84              		.loc 1 151 0
  85 0014 0820     		movs	r0, #8
 149:Generated_Source\PSoC4/I2C_I2C_SLAVE.c **** 
  86              		.loc 1 149 0
  87 0016 1A70     		strb	r2, [r3]
 151:Generated_Source\PSoC4/I2C_I2C_SLAVE.c **** 
  88              		.loc 1 151 0
  89 0018 FFF7FEFF 		bl	CyIntEnable
  90              	.LVL2:
 153:Generated_Source\PSoC4/I2C_I2C_SLAVE.c **** }
  91              		.loc 1 153 0
  92 001c 0F20     		movs	r0, #15
  93 001e 2040     		ands	r0, r4
  94              	.LVL3:
  95              		.loc 1 154 0
  96 0020 10BD     		pop	{r4, pc}
  97              	.L6:
  98 0022 C046     		.align	2
  99              	.L5:
 100 0024 00000000 		.word	I2C_slStatus
 101              		.cfi_endproc
 102              	.LFE2:
 103              		.size	I2C_I2CSlaveClearReadStatus, .-I2C_I2CSlaveClearReadStatus
 104              		.section	.text.I2C_I2CSlaveClearWriteStatus,"ax",%progbits
 105              		.align	1
 106              		.global	I2C_I2CSlaveClearWriteStatus
 107              		.code	16
 108              		.thumb_func
 109              		.type	I2C_I2CSlaveClearWriteStatus, %function
 110              	I2C_I2CSlaveClearWriteStatus:
 111              	.LFB3:
 155:Generated_Source\PSoC4/I2C_I2C_SLAVE.c **** 
 156:Generated_Source\PSoC4/I2C_I2C_SLAVE.c **** 
 157:Generated_Source\PSoC4/I2C_I2C_SLAVE.c **** /*******************************************************************************
 158:Generated_Source\PSoC4/I2C_I2C_SLAVE.c **** * Function Name: I2C_I2CSlaveClearWriteStatus
 159:Generated_Source\PSoC4/I2C_I2C_SLAVE.c **** ****************************************************************************//**
 160:Generated_Source\PSoC4/I2C_I2C_SLAVE.c **** *
 161:Generated_Source\PSoC4/I2C_I2C_SLAVE.c **** *  Clears the write status flags and returns their values. No other status flags
 162:Generated_Source\PSoC4/I2C_I2C_SLAVE.c **** *  are affected.
 163:Generated_Source\PSoC4/I2C_I2C_SLAVE.c **** *
 164:Generated_Source\PSoC4/I2C_I2C_SLAVE.c **** * \return
ARM GAS  C:\Users\Minakian\AppData\Local\Temp\ccs5y3DW.s 			page 6


 165:Generated_Source\PSoC4/I2C_I2C_SLAVE.c **** *  Current write status of slave. See the SCB_I2CSlaveStatus() function 
 166:Generated_Source\PSoC4/I2C_I2C_SLAVE.c **** *  for constants.
 167:Generated_Source\PSoC4/I2C_I2C_SLAVE.c **** *
 168:Generated_Source\PSoC4/I2C_I2C_SLAVE.c **** * \sideeffect
 169:Generated_Source\PSoC4/I2C_I2C_SLAVE.c **** *  This function does not clear I2C_I2C_SSTAT_WR_BUSY.*
 170:Generated_Source\PSoC4/I2C_I2C_SLAVE.c **** *
 171:Generated_Source\PSoC4/I2C_I2C_SLAVE.c **** * \globalvars
 172:Generated_Source\PSoC4/I2C_I2C_SLAVE.c **** *  I2C_slStatus  - used to store current status of I2C slave.
 173:Generated_Source\PSoC4/I2C_I2C_SLAVE.c **** *
 174:Generated_Source\PSoC4/I2C_I2C_SLAVE.c **** *******************************************************************************/
 175:Generated_Source\PSoC4/I2C_I2C_SLAVE.c **** uint32 I2C_I2CSlaveClearWriteStatus(void)
 176:Generated_Source\PSoC4/I2C_I2C_SLAVE.c **** {
 112              		.loc 1 176 0
 113              		.cfi_startproc
 114              		@ args = 0, pretend = 0, frame = 0
 115              		@ frame_needed = 0, uses_anonymous_args = 0
 116 0000 10B5     		push	{r4, lr}
 117              		.cfi_def_cfa_offset 8
 118              		.cfi_offset 4, -8
 119              		.cfi_offset 14, -4
 177:Generated_Source\PSoC4/I2C_I2C_SLAVE.c ****     uint32 status;
 178:Generated_Source\PSoC4/I2C_I2C_SLAVE.c **** 
 179:Generated_Source\PSoC4/I2C_I2C_SLAVE.c ****     I2C_DisableInt();  /* Lock from interruption */
 120              		.loc 1 179 0
 121 0002 0820     		movs	r0, #8
 122 0004 FFF7FEFF 		bl	CyIntDisable
 123              	.LVL4:
 180:Generated_Source\PSoC4/I2C_I2C_SLAVE.c **** 
 181:Generated_Source\PSoC4/I2C_I2C_SLAVE.c ****     /* Mask of transfer complete flag and Error status */
 182:Generated_Source\PSoC4/I2C_I2C_SLAVE.c ****     status = ((uint32) I2C_slStatus & I2C_I2C_SSTAT_WR_MASK);
 183:Generated_Source\PSoC4/I2C_I2C_SLAVE.c ****     I2C_slStatus &= (uint8) ~I2C_I2C_SSTAT_WR_CLEAR;
 124              		.loc 1 183 0
 125 0008 2F22     		movs	r2, #47
 182:Generated_Source\PSoC4/I2C_I2C_SLAVE.c ****     I2C_slStatus &= (uint8) ~I2C_I2C_SSTAT_WR_CLEAR;
 126              		.loc 1 182 0
 127 000a 064B     		ldr	r3, .L8
 184:Generated_Source\PSoC4/I2C_I2C_SLAVE.c **** 
 185:Generated_Source\PSoC4/I2C_I2C_SLAVE.c ****     I2C_EnableInt();   /* Release lock */
 128              		.loc 1 185 0
 129 000c 0820     		movs	r0, #8
 182:Generated_Source\PSoC4/I2C_I2C_SLAVE.c ****     I2C_slStatus &= (uint8) ~I2C_I2C_SSTAT_WR_CLEAR;
 130              		.loc 1 182 0
 131 000e 1C78     		ldrb	r4, [r3]
 183:Generated_Source\PSoC4/I2C_I2C_SLAVE.c **** 
 132              		.loc 1 183 0
 133 0010 1978     		ldrb	r1, [r3]
 182:Generated_Source\PSoC4/I2C_I2C_SLAVE.c ****     I2C_slStatus &= (uint8) ~I2C_I2C_SSTAT_WR_CLEAR;
 134              		.loc 1 182 0
 135 0012 E4B2     		uxtb	r4, r4
 136              	.LVL5:
 183:Generated_Source\PSoC4/I2C_I2C_SLAVE.c **** 
 137              		.loc 1 183 0
 138 0014 0A40     		ands	r2, r1
 139 0016 1A70     		strb	r2, [r3]
 140              		.loc 1 185 0
 141 0018 FFF7FEFF 		bl	CyIntEnable
 142              	.LVL6:
ARM GAS  C:\Users\Minakian\AppData\Local\Temp\ccs5y3DW.s 			page 7


 186:Generated_Source\PSoC4/I2C_I2C_SLAVE.c **** 
 187:Generated_Source\PSoC4/I2C_I2C_SLAVE.c ****     return(status);
 143              		.loc 1 187 0
 144 001c 0F23     		movs	r3, #15
 145 001e 2000     		movs	r0, r4
 188:Generated_Source\PSoC4/I2C_I2C_SLAVE.c **** }
 146              		.loc 1 188 0
 147              		@ sp needed
 187:Generated_Source\PSoC4/I2C_I2C_SLAVE.c **** }
 148              		.loc 1 187 0
 149 0020 9843     		bics	r0, r3
 150              	.LVL7:
 151              		.loc 1 188 0
 152 0022 10BD     		pop	{r4, pc}
 153              	.L9:
 154              		.align	2
 155              	.L8:
 156 0024 00000000 		.word	I2C_slStatus
 157              		.cfi_endproc
 158              	.LFE3:
 159              		.size	I2C_I2CSlaveClearWriteStatus, .-I2C_I2CSlaveClearWriteStatus
 160              		.section	.text.I2C_I2CSlaveSetAddress,"ax",%progbits
 161              		.align	1
 162              		.global	I2C_I2CSlaveSetAddress
 163              		.code	16
 164              		.thumb_func
 165              		.type	I2C_I2CSlaveSetAddress, %function
 166              	I2C_I2CSlaveSetAddress:
 167              	.LFB4:
 189:Generated_Source\PSoC4/I2C_I2C_SLAVE.c **** 
 190:Generated_Source\PSoC4/I2C_I2C_SLAVE.c **** 
 191:Generated_Source\PSoC4/I2C_I2C_SLAVE.c **** /*******************************************************************************
 192:Generated_Source\PSoC4/I2C_I2C_SLAVE.c **** * Function Name: I2C_I2CSlaveSetAddress
 193:Generated_Source\PSoC4/I2C_I2C_SLAVE.c **** ****************************************************************************//**
 194:Generated_Source\PSoC4/I2C_I2C_SLAVE.c **** *
 195:Generated_Source\PSoC4/I2C_I2C_SLAVE.c **** * Sets the I2C slave address.
 196:Generated_Source\PSoC4/I2C_I2C_SLAVE.c **** *
 197:Generated_Source\PSoC4/I2C_I2C_SLAVE.c **** * \param address: I2C slave address for the primary device.
 198:Generated_Source\PSoC4/I2C_I2C_SLAVE.c **** *  This address is the 7-bit right-justified slave address and does not 
 199:Generated_Source\PSoC4/I2C_I2C_SLAVE.c **** *  include the R/W bit.
 200:Generated_Source\PSoC4/I2C_I2C_SLAVE.c **** *  The address value is not checked to see if it violates the I2C spec. 
 201:Generated_Source\PSoC4/I2C_I2C_SLAVE.c **** *  The preferred addresses are between 8 and 120 (0x08 to 0x78).
 202:Generated_Source\PSoC4/I2C_I2C_SLAVE.c **** *
 203:Generated_Source\PSoC4/I2C_I2C_SLAVE.c **** *******************************************************************************/
 204:Generated_Source\PSoC4/I2C_I2C_SLAVE.c **** void I2C_I2CSlaveSetAddress(uint32 address)
 205:Generated_Source\PSoC4/I2C_I2C_SLAVE.c **** {
 168              		.loc 1 205 0
 169              		.cfi_startproc
 170              		@ args = 0, pretend = 0, frame = 0
 171              		@ frame_needed = 0, uses_anonymous_args = 0
 172              		@ link register save eliminated.
 173              	.LVL8:
 206:Generated_Source\PSoC4/I2C_I2C_SLAVE.c ****     uint32 matchReg;
 207:Generated_Source\PSoC4/I2C_I2C_SLAVE.c **** 
 208:Generated_Source\PSoC4/I2C_I2C_SLAVE.c ****     matchReg = I2C_RX_MATCH_REG;
 209:Generated_Source\PSoC4/I2C_I2C_SLAVE.c **** 
 210:Generated_Source\PSoC4/I2C_I2C_SLAVE.c ****     matchReg &= ((uint32) ~I2C_RX_MATCH_ADDR_MASK); /* Clear address bits */
ARM GAS  C:\Users\Minakian\AppData\Local\Temp\ccs5y3DW.s 			page 8


 174              		.loc 1 210 0
 175 0000 FF22     		movs	r2, #255
 208:Generated_Source\PSoC4/I2C_I2C_SLAVE.c **** 
 176              		.loc 1 208 0
 177 0002 0449     		ldr	r1, .L11
 211:Generated_Source\PSoC4/I2C_I2C_SLAVE.c ****     matchReg |= ((uint32)  I2C_GET_I2C_8BIT_ADDRESS(address));
 178              		.loc 1 211 0
 179 0004 4000     		lsls	r0, r0, #1
 180              	.LVL9:
 208:Generated_Source\PSoC4/I2C_I2C_SLAVE.c **** 
 181              		.loc 1 208 0
 182 0006 0B68     		ldr	r3, [r1]
 183              	.LVL10:
 184              		.loc 1 211 0
 185 0008 1040     		ands	r0, r2
 210:Generated_Source\PSoC4/I2C_I2C_SLAVE.c ****     matchReg |= ((uint32)  I2C_GET_I2C_8BIT_ADDRESS(address));
 186              		.loc 1 210 0
 187 000a 9343     		bics	r3, r2
 188              	.LVL11:
 189              		.loc 1 211 0
 190 000c 1843     		orrs	r0, r3
 191              	.LVL12:
 212:Generated_Source\PSoC4/I2C_I2C_SLAVE.c **** 
 213:Generated_Source\PSoC4/I2C_I2C_SLAVE.c ****     I2C_RX_MATCH_REG = matchReg;
 192              		.loc 1 213 0
 193 000e 0860     		str	r0, [r1]
 214:Generated_Source\PSoC4/I2C_I2C_SLAVE.c **** }
 194              		.loc 1 214 0
 195              		@ sp needed
 196 0010 7047     		bx	lr
 197              	.L12:
 198 0012 C046     		.align	2
 199              	.L11:
 200 0014 10030940 		.word	1074332432
 201              		.cfi_endproc
 202              	.LFE4:
 203              		.size	I2C_I2CSlaveSetAddress, .-I2C_I2CSlaveSetAddress
 204              		.section	.text.I2C_I2CSlaveSetAddressMask,"ax",%progbits
 205              		.align	1
 206              		.global	I2C_I2CSlaveSetAddressMask
 207              		.code	16
 208              		.thumb_func
 209              		.type	I2C_I2CSlaveSetAddressMask, %function
 210              	I2C_I2CSlaveSetAddressMask:
 211              	.LFB5:
 215:Generated_Source\PSoC4/I2C_I2C_SLAVE.c **** 
 216:Generated_Source\PSoC4/I2C_I2C_SLAVE.c **** 
 217:Generated_Source\PSoC4/I2C_I2C_SLAVE.c **** /*******************************************************************************
 218:Generated_Source\PSoC4/I2C_I2C_SLAVE.c **** * Function Name: I2C_I2CSlaveSetAddressMask
 219:Generated_Source\PSoC4/I2C_I2C_SLAVE.c **** ****************************************************************************//**
 220:Generated_Source\PSoC4/I2C_I2C_SLAVE.c **** *
 221:Generated_Source\PSoC4/I2C_I2C_SLAVE.c **** *  Sets the I2C slave address mask.
 222:Generated_Source\PSoC4/I2C_I2C_SLAVE.c **** *
 223:Generated_Source\PSoC4/I2C_I2C_SLAVE.c **** * \param addressMask: I2C slave address mask.
 224:Generated_Source\PSoC4/I2C_I2C_SLAVE.c **** *  - Bit value 0 – excludes bit from address comparison.
 225:Generated_Source\PSoC4/I2C_I2C_SLAVE.c **** *  - Bit value 1 – the bit needs to match with the corresponding bit of the 
 226:Generated_Source\PSoC4/I2C_I2C_SLAVE.c **** *  I2C slave address.
ARM GAS  C:\Users\Minakian\AppData\Local\Temp\ccs5y3DW.s 			page 9


 227:Generated_Source\PSoC4/I2C_I2C_SLAVE.c **** *
 228:Generated_Source\PSoC4/I2C_I2C_SLAVE.c **** *  The range of valid values is between 0 and 254 (0x00 to 0xFE). 
 229:Generated_Source\PSoC4/I2C_I2C_SLAVE.c **** *  The LSB of the address mask must be 0 because it corresponds to R/W bit 
 230:Generated_Source\PSoC4/I2C_I2C_SLAVE.c **** *  within I2C slave address byte.
 231:Generated_Source\PSoC4/I2C_I2C_SLAVE.c **** *
 232:Generated_Source\PSoC4/I2C_I2C_SLAVE.c **** *******************************************************************************/
 233:Generated_Source\PSoC4/I2C_I2C_SLAVE.c **** void I2C_I2CSlaveSetAddressMask(uint32 addressMask)
 234:Generated_Source\PSoC4/I2C_I2C_SLAVE.c **** {
 212              		.loc 1 234 0
 213              		.cfi_startproc
 214              		@ args = 0, pretend = 0, frame = 0
 215              		@ frame_needed = 0, uses_anonymous_args = 0
 216              		@ link register save eliminated.
 217              	.LVL13:
 235:Generated_Source\PSoC4/I2C_I2C_SLAVE.c ****     uint32 matchReg;
 236:Generated_Source\PSoC4/I2C_I2C_SLAVE.c **** 
 237:Generated_Source\PSoC4/I2C_I2C_SLAVE.c ****     matchReg = I2C_RX_MATCH_REG;
 218              		.loc 1 237 0
 219 0000 034A     		ldr	r2, .L14
 238:Generated_Source\PSoC4/I2C_I2C_SLAVE.c **** 
 239:Generated_Source\PSoC4/I2C_I2C_SLAVE.c ****     matchReg &= ((uint32) ~I2C_RX_MATCH_MASK_MASK);
 220              		.loc 1 239 0
 221 0002 044B     		ldr	r3, .L14+4
 237:Generated_Source\PSoC4/I2C_I2C_SLAVE.c **** 
 222              		.loc 1 237 0
 223 0004 1168     		ldr	r1, [r2]
 224              	.LVL14:
 240:Generated_Source\PSoC4/I2C_I2C_SLAVE.c ****     matchReg |= ((uint32) (addressMask << I2C_RX_MATCH_MASK_POS));
 225              		.loc 1 240 0
 226 0006 0004     		lsls	r0, r0, #16
 227              	.LVL15:
 239:Generated_Source\PSoC4/I2C_I2C_SLAVE.c ****     matchReg |= ((uint32) (addressMask << I2C_RX_MATCH_MASK_POS));
 228              		.loc 1 239 0
 229 0008 0B40     		ands	r3, r1
 230              	.LVL16:
 231              		.loc 1 240 0
 232 000a 1843     		orrs	r0, r3
 233              	.LVL17:
 241:Generated_Source\PSoC4/I2C_I2C_SLAVE.c **** 
 242:Generated_Source\PSoC4/I2C_I2C_SLAVE.c ****     I2C_RX_MATCH_REG = matchReg;
 234              		.loc 1 242 0
 235 000c 1060     		str	r0, [r2]
 243:Generated_Source\PSoC4/I2C_I2C_SLAVE.c **** }
 236              		.loc 1 243 0
 237              		@ sp needed
 238 000e 7047     		bx	lr
 239              	.L15:
 240              		.align	2
 241              	.L14:
 242 0010 10030940 		.word	1074332432
 243 0014 FFFF00FF 		.word	-16711681
 244              		.cfi_endproc
 245              	.LFE5:
 246              		.size	I2C_I2CSlaveSetAddressMask, .-I2C_I2CSlaveSetAddressMask
 247              		.section	.text.I2C_I2CSlaveInitReadBuf,"ax",%progbits
 248              		.align	1
 249              		.global	I2C_I2CSlaveInitReadBuf
ARM GAS  C:\Users\Minakian\AppData\Local\Temp\ccs5y3DW.s 			page 10


 250              		.code	16
 251              		.thumb_func
 252              		.type	I2C_I2CSlaveInitReadBuf, %function
 253              	I2C_I2CSlaveInitReadBuf:
 254              	.LFB6:
 244:Generated_Source\PSoC4/I2C_I2C_SLAVE.c **** 
 245:Generated_Source\PSoC4/I2C_I2C_SLAVE.c **** 
 246:Generated_Source\PSoC4/I2C_I2C_SLAVE.c **** /*******************************************************************************
 247:Generated_Source\PSoC4/I2C_I2C_SLAVE.c **** * Function Name: I2C_I2CSlaveInitReadBuf
 248:Generated_Source\PSoC4/I2C_I2C_SLAVE.c **** ****************************************************************************//**
 249:Generated_Source\PSoC4/I2C_I2C_SLAVE.c **** *
 250:Generated_Source\PSoC4/I2C_I2C_SLAVE.c **** *  Sets the buffer pointer and size of the read buffer. This function also
 251:Generated_Source\PSoC4/I2C_I2C_SLAVE.c **** *  resets the transfer count returned with the 
 252:Generated_Source\PSoC4/I2C_I2C_SLAVE.c **** *  I2C_SlaveGetReadBufSize() function.
 253:Generated_Source\PSoC4/I2C_I2C_SLAVE.c **** *
 254:Generated_Source\PSoC4/I2C_I2C_SLAVE.c **** * \param readBuf: Pointer to the data buffer to be read by the master.
 255:Generated_Source\PSoC4/I2C_I2C_SLAVE.c **** * \param bufSize: Size of the read buffer exposed to the I2C master.
 256:Generated_Source\PSoC4/I2C_I2C_SLAVE.c **** *
 257:Generated_Source\PSoC4/I2C_I2C_SLAVE.c **** * \sideeffect
 258:Generated_Source\PSoC4/I2C_I2C_SLAVE.c **** *  If this function is called during a bus transaction, data from the previous
 259:Generated_Source\PSoC4/I2C_I2C_SLAVE.c **** *  buffer location and the beginning of current buffer may be transmitted.
 260:Generated_Source\PSoC4/I2C_I2C_SLAVE.c **** *
 261:Generated_Source\PSoC4/I2C_I2C_SLAVE.c **** * \globalvars
 262:Generated_Source\PSoC4/I2C_I2C_SLAVE.c **** *  I2C_slRdBufPtr   - used to store pointer to slave read buffer.
 263:Generated_Source\PSoC4/I2C_I2C_SLAVE.c **** *  I2C_slRdBufSize  - used to store salve read buffer size.
 264:Generated_Source\PSoC4/I2C_I2C_SLAVE.c **** *  I2C_slRdBufIndex - used to store current index within slave
 265:Generated_Source\PSoC4/I2C_I2C_SLAVE.c **** *  read buffer.
 266:Generated_Source\PSoC4/I2C_I2C_SLAVE.c **** *
 267:Generated_Source\PSoC4/I2C_I2C_SLAVE.c **** *******************************************************************************/
 268:Generated_Source\PSoC4/I2C_I2C_SLAVE.c **** void I2C_I2CSlaveInitReadBuf(uint8 * rdBuf, uint32 bufSize)
 269:Generated_Source\PSoC4/I2C_I2C_SLAVE.c **** {
 255              		.loc 1 269 0
 256              		.cfi_startproc
 257              		@ args = 0, pretend = 0, frame = 0
 258              		@ frame_needed = 0, uses_anonymous_args = 0
 259              	.LVL18:
 260 0000 70B5     		push	{r4, r5, r6, lr}
 261              		.cfi_def_cfa_offset 16
 262              		.cfi_offset 4, -16
 263              		.cfi_offset 5, -12
 264              		.cfi_offset 6, -8
 265              		.cfi_offset 14, -4
 266              		.loc 1 269 0
 267 0002 0400     		movs	r4, r0
 268 0004 0D00     		movs	r5, r1
 270:Generated_Source\PSoC4/I2C_I2C_SLAVE.c ****     /* Check for proper buffer */
 271:Generated_Source\PSoC4/I2C_I2C_SLAVE.c ****     if(NULL != rdBuf)
 269              		.loc 1 271 0
 270 0006 0028     		cmp	r0, #0
 271 0008 0ED0     		beq	.L16
 272:Generated_Source\PSoC4/I2C_I2C_SLAVE.c ****     {
 273:Generated_Source\PSoC4/I2C_I2C_SLAVE.c ****         I2C_DisableInt();  /* Lock from interruption */
 272              		.loc 1 273 0
 273 000a 0820     		movs	r0, #8
 274              	.LVL19:
 275 000c FFF7FEFF 		bl	CyIntDisable
 276              	.LVL20:
ARM GAS  C:\Users\Minakian\AppData\Local\Temp\ccs5y3DW.s 			page 11


 274:Generated_Source\PSoC4/I2C_I2C_SLAVE.c **** 
 275:Generated_Source\PSoC4/I2C_I2C_SLAVE.c ****         I2C_slRdBufPtr      = (volatile uint8 *) rdBuf; /* Set buffer pointer  */
 277              		.loc 1 275 0
 278 0010 064B     		ldr	r3, .L22
 276:Generated_Source\PSoC4/I2C_I2C_SLAVE.c ****         I2C_slRdBufSize     = bufSize;                  /* Set buffer size     */
 277:Generated_Source\PSoC4/I2C_I2C_SLAVE.c ****         I2C_slRdBufIndex    = 0u;                       /* Clear buffer index  */
 279              		.loc 1 277 0
 280 0012 074A     		ldr	r2, .L22+4
 275:Generated_Source\PSoC4/I2C_I2C_SLAVE.c ****         I2C_slRdBufSize     = bufSize;                  /* Set buffer size     */
 281              		.loc 1 275 0
 282 0014 1C60     		str	r4, [r3]
 276:Generated_Source\PSoC4/I2C_I2C_SLAVE.c ****         I2C_slRdBufSize     = bufSize;                  /* Set buffer size     */
 283              		.loc 1 276 0
 284 0016 074B     		ldr	r3, .L22+8
 278:Generated_Source\PSoC4/I2C_I2C_SLAVE.c ****         I2C_slRdBufIndexTmp = 0u;                       /* Clear buffer index  */
 279:Generated_Source\PSoC4/I2C_I2C_SLAVE.c **** 
 280:Generated_Source\PSoC4/I2C_I2C_SLAVE.c ****         I2C_EnableInt();   /* Release lock */
 285              		.loc 1 280 0
 286 0018 0820     		movs	r0, #8
 276:Generated_Source\PSoC4/I2C_I2C_SLAVE.c ****         I2C_slRdBufIndex    = 0u;                       /* Clear buffer index  */
 287              		.loc 1 276 0
 288 001a 1D60     		str	r5, [r3]
 277:Generated_Source\PSoC4/I2C_I2C_SLAVE.c ****         I2C_slRdBufIndexTmp = 0u;                       /* Clear buffer index  */
 289              		.loc 1 277 0
 290 001c 0023     		movs	r3, #0
 291 001e 1360     		str	r3, [r2]
 278:Generated_Source\PSoC4/I2C_I2C_SLAVE.c ****         I2C_slRdBufIndexTmp = 0u;                       /* Clear buffer index  */
 292              		.loc 1 278 0
 293 0020 054A     		ldr	r2, .L22+12
 294 0022 1360     		str	r3, [r2]
 295              		.loc 1 280 0
 296 0024 FFF7FEFF 		bl	CyIntEnable
 297              	.LVL21:
 298              	.L16:
 281:Generated_Source\PSoC4/I2C_I2C_SLAVE.c ****     }
 282:Generated_Source\PSoC4/I2C_I2C_SLAVE.c **** }
 299              		.loc 1 282 0
 300              		@ sp needed
 301              	.LVL22:
 302              	.LVL23:
 303 0028 70BD     		pop	{r4, r5, r6, pc}
 304              	.L23:
 305 002a C046     		.align	2
 306              	.L22:
 307 002c 00000000 		.word	I2C_slRdBufPtr
 308 0030 00000000 		.word	I2C_slRdBufIndex
 309 0034 00000000 		.word	I2C_slRdBufSize
 310 0038 00000000 		.word	I2C_slRdBufIndexTmp
 311              		.cfi_endproc
 312              	.LFE6:
 313              		.size	I2C_I2CSlaveInitReadBuf, .-I2C_I2CSlaveInitReadBuf
 314              		.section	.text.I2C_I2CSlaveInitWriteBuf,"ax",%progbits
 315              		.align	1
 316              		.global	I2C_I2CSlaveInitWriteBuf
 317              		.code	16
 318              		.thumb_func
 319              		.type	I2C_I2CSlaveInitWriteBuf, %function
ARM GAS  C:\Users\Minakian\AppData\Local\Temp\ccs5y3DW.s 			page 12


 320              	I2C_I2CSlaveInitWriteBuf:
 321              	.LFB7:
 283:Generated_Source\PSoC4/I2C_I2C_SLAVE.c **** 
 284:Generated_Source\PSoC4/I2C_I2C_SLAVE.c **** 
 285:Generated_Source\PSoC4/I2C_I2C_SLAVE.c **** /*******************************************************************************
 286:Generated_Source\PSoC4/I2C_I2C_SLAVE.c **** * Function Name: I2C_I2CSlaveInitWriteBuf
 287:Generated_Source\PSoC4/I2C_I2C_SLAVE.c **** ****************************************************************************//**
 288:Generated_Source\PSoC4/I2C_I2C_SLAVE.c **** *
 289:Generated_Source\PSoC4/I2C_I2C_SLAVE.c **** *  Sets the buffer pointer and size of the write buffer. This function also 
 290:Generated_Source\PSoC4/I2C_I2C_SLAVE.c **** *  resets the transfer count returned with the 
 291:Generated_Source\PSoC4/I2C_I2C_SLAVE.c **** *  I2C_I2CSlaveGetWriteBufSize() function.
 292:Generated_Source\PSoC4/I2C_I2C_SLAVE.c **** *
 293:Generated_Source\PSoC4/I2C_I2C_SLAVE.c **** * \param writeBuf: Pointer to the data buffer to be written by the master.
 294:Generated_Source\PSoC4/I2C_I2C_SLAVE.c **** * \param bufSize:  Size of the write buffer exposed to the I2C master.
 295:Generated_Source\PSoC4/I2C_I2C_SLAVE.c **** *
 296:Generated_Source\PSoC4/I2C_I2C_SLAVE.c **** * \sideeffect
 297:Generated_Source\PSoC4/I2C_I2C_SLAVE.c **** *  If this function is called during a bus transaction, data may be received in 
 298:Generated_Source\PSoC4/I2C_I2C_SLAVE.c **** *  the previous buffer and the current buffer location.
 299:Generated_Source\PSoC4/I2C_I2C_SLAVE.c **** *
 300:Generated_Source\PSoC4/I2C_I2C_SLAVE.c **** * \globalvars
 301:Generated_Source\PSoC4/I2C_I2C_SLAVE.c **** *  I2C_slWrBufPtr   - used to store pointer to slave write buffer.
 302:Generated_Source\PSoC4/I2C_I2C_SLAVE.c **** *  I2C_slWrBufSize  - used to store salve write buffer size.
 303:Generated_Source\PSoC4/I2C_I2C_SLAVE.c **** *  I2C_slWrBufIndex - used to store current index within slave
 304:Generated_Source\PSoC4/I2C_I2C_SLAVE.c **** *   write buffer.
 305:Generated_Source\PSoC4/I2C_I2C_SLAVE.c **** *
 306:Generated_Source\PSoC4/I2C_I2C_SLAVE.c **** *******************************************************************************/
 307:Generated_Source\PSoC4/I2C_I2C_SLAVE.c **** void I2C_I2CSlaveInitWriteBuf(uint8 * wrBuf, uint32 bufSize)
 308:Generated_Source\PSoC4/I2C_I2C_SLAVE.c **** {
 322              		.loc 1 308 0
 323              		.cfi_startproc
 324              		@ args = 0, pretend = 0, frame = 0
 325              		@ frame_needed = 0, uses_anonymous_args = 0
 326              	.LVL24:
 327 0000 70B5     		push	{r4, r5, r6, lr}
 328              		.cfi_def_cfa_offset 16
 329              		.cfi_offset 4, -16
 330              		.cfi_offset 5, -12
 331              		.cfi_offset 6, -8
 332              		.cfi_offset 14, -4
 333              		.loc 1 308 0
 334 0002 0400     		movs	r4, r0
 335 0004 0D00     		movs	r5, r1
 309:Generated_Source\PSoC4/I2C_I2C_SLAVE.c ****     /* Check buffer pointer */
 310:Generated_Source\PSoC4/I2C_I2C_SLAVE.c ****     if(NULL != wrBuf)
 336              		.loc 1 310 0
 337 0006 0028     		cmp	r0, #0
 338 0008 0CD0     		beq	.L24
 311:Generated_Source\PSoC4/I2C_I2C_SLAVE.c ****     {
 312:Generated_Source\PSoC4/I2C_I2C_SLAVE.c ****         I2C_DisableInt();  /* Lock from interruption */
 339              		.loc 1 312 0
 340 000a 0820     		movs	r0, #8
 341              	.LVL25:
 342 000c FFF7FEFF 		bl	CyIntDisable
 343              	.LVL26:
 313:Generated_Source\PSoC4/I2C_I2C_SLAVE.c **** 
 314:Generated_Source\PSoC4/I2C_I2C_SLAVE.c ****         I2C_slWrBufPtr   = (volatile uint8 *) wrBuf; /* Set buffer pointer  */
 315:Generated_Source\PSoC4/I2C_I2C_SLAVE.c ****         I2C_slWrBufSize  = bufSize;                  /* Set buffer size     */
ARM GAS  C:\Users\Minakian\AppData\Local\Temp\ccs5y3DW.s 			page 13


 316:Generated_Source\PSoC4/I2C_I2C_SLAVE.c ****         I2C_slWrBufIndex = 0u;                       /* Clear buffer index  */
 344              		.loc 1 316 0
 345 0010 0022     		movs	r2, #0
 314:Generated_Source\PSoC4/I2C_I2C_SLAVE.c ****         I2C_slWrBufSize  = bufSize;                  /* Set buffer size     */
 346              		.loc 1 314 0
 347 0012 054B     		ldr	r3, .L29
 317:Generated_Source\PSoC4/I2C_I2C_SLAVE.c **** 
 318:Generated_Source\PSoC4/I2C_I2C_SLAVE.c ****         I2C_EnableInt();   /* Release lock */
 348              		.loc 1 318 0
 349 0014 0820     		movs	r0, #8
 314:Generated_Source\PSoC4/I2C_I2C_SLAVE.c ****         I2C_slWrBufSize  = bufSize;                  /* Set buffer size     */
 350              		.loc 1 314 0
 351 0016 1C60     		str	r4, [r3]
 315:Generated_Source\PSoC4/I2C_I2C_SLAVE.c ****         I2C_slWrBufIndex = 0u;                       /* Clear buffer index  */
 352              		.loc 1 315 0
 353 0018 044B     		ldr	r3, .L29+4
 354 001a 1D60     		str	r5, [r3]
 316:Generated_Source\PSoC4/I2C_I2C_SLAVE.c **** 
 355              		.loc 1 316 0
 356 001c 044B     		ldr	r3, .L29+8
 357 001e 1A60     		str	r2, [r3]
 358              		.loc 1 318 0
 359 0020 FFF7FEFF 		bl	CyIntEnable
 360              	.LVL27:
 361              	.L24:
 319:Generated_Source\PSoC4/I2C_I2C_SLAVE.c ****     }
 320:Generated_Source\PSoC4/I2C_I2C_SLAVE.c **** }
 362              		.loc 1 320 0
 363              		@ sp needed
 364              	.LVL28:
 365              	.LVL29:
 366 0024 70BD     		pop	{r4, r5, r6, pc}
 367              	.L30:
 368 0026 C046     		.align	2
 369              	.L29:
 370 0028 00000000 		.word	I2C_slWrBufPtr
 371 002c 00000000 		.word	I2C_slWrBufSize
 372 0030 00000000 		.word	I2C_slWrBufIndex
 373              		.cfi_endproc
 374              	.LFE7:
 375              		.size	I2C_I2CSlaveInitWriteBuf, .-I2C_I2CSlaveInitWriteBuf
 376              		.section	.text.I2C_I2CSlaveGetReadBufSize,"ax",%progbits
 377              		.align	1
 378              		.global	I2C_I2CSlaveGetReadBufSize
 379              		.code	16
 380              		.thumb_func
 381              		.type	I2C_I2CSlaveGetReadBufSize, %function
 382              	I2C_I2CSlaveGetReadBufSize:
 383              	.LFB8:
 321:Generated_Source\PSoC4/I2C_I2C_SLAVE.c **** 
 322:Generated_Source\PSoC4/I2C_I2C_SLAVE.c **** 
 323:Generated_Source\PSoC4/I2C_I2C_SLAVE.c **** /*******************************************************************************
 324:Generated_Source\PSoC4/I2C_I2C_SLAVE.c **** * Function Name: I2C_I2CSlaveGetReadBufSize
 325:Generated_Source\PSoC4/I2C_I2C_SLAVE.c **** ****************************************************************************//**
 326:Generated_Source\PSoC4/I2C_I2C_SLAVE.c **** *
 327:Generated_Source\PSoC4/I2C_I2C_SLAVE.c **** *  Returns the number of bytes read by the I2C master since an
 328:Generated_Source\PSoC4/I2C_I2C_SLAVE.c **** *  I2C_I2CSlaveInitReadBuf() or 
ARM GAS  C:\Users\Minakian\AppData\Local\Temp\ccs5y3DW.s 			page 14


 329:Generated_Source\PSoC4/I2C_I2C_SLAVE.c **** *  I2C_I2CSlaveClearReadBuf() function was executed.
 330:Generated_Source\PSoC4/I2C_I2C_SLAVE.c **** *  The maximum return value is the size of the read buffer.
 331:Generated_Source\PSoC4/I2C_I2C_SLAVE.c **** *
 332:Generated_Source\PSoC4/I2C_I2C_SLAVE.c **** * \return
 333:Generated_Source\PSoC4/I2C_I2C_SLAVE.c **** *  Bytes read by master. If the transfer is not yet complete, it returns 
 334:Generated_Source\PSoC4/I2C_I2C_SLAVE.c **** *  zero until transfer completion.
 335:Generated_Source\PSoC4/I2C_I2C_SLAVE.c **** *
 336:Generated_Source\PSoC4/I2C_I2C_SLAVE.c **** * \sideeffect
 337:Generated_Source\PSoC4/I2C_I2C_SLAVE.c **** *  The returned value is not valid if I2C_I2C_SSTAT_RD_ERR was 
 338:Generated_Source\PSoC4/I2C_I2C_SLAVE.c **** *  captured by the slave.
 339:Generated_Source\PSoC4/I2C_I2C_SLAVE.c **** *
 340:Generated_Source\PSoC4/I2C_I2C_SLAVE.c **** * \globalvars
 341:Generated_Source\PSoC4/I2C_I2C_SLAVE.c **** *  I2C_slRdBufIndex - used to store current index within slave
 342:Generated_Source\PSoC4/I2C_I2C_SLAVE.c **** *  read buffer.
 343:Generated_Source\PSoC4/I2C_I2C_SLAVE.c **** *
 344:Generated_Source\PSoC4/I2C_I2C_SLAVE.c **** *******************************************************************************/
 345:Generated_Source\PSoC4/I2C_I2C_SLAVE.c **** uint32 I2C_I2CSlaveGetReadBufSize(void)
 346:Generated_Source\PSoC4/I2C_I2C_SLAVE.c **** {
 384              		.loc 1 346 0
 385              		.cfi_startproc
 386              		@ args = 0, pretend = 0, frame = 0
 387              		@ frame_needed = 0, uses_anonymous_args = 0
 388              		@ link register save eliminated.
 347:Generated_Source\PSoC4/I2C_I2C_SLAVE.c ****     return(I2C_slRdBufIndex);
 389              		.loc 1 347 0
 390 0000 014B     		ldr	r3, .L32
 348:Generated_Source\PSoC4/I2C_I2C_SLAVE.c **** }
 391              		.loc 1 348 0
 392              		@ sp needed
 347:Generated_Source\PSoC4/I2C_I2C_SLAVE.c ****     return(I2C_slRdBufIndex);
 393              		.loc 1 347 0
 394 0002 1868     		ldr	r0, [r3]
 395              		.loc 1 348 0
 396 0004 7047     		bx	lr
 397              	.L33:
 398 0006 C046     		.align	2
 399              	.L32:
 400 0008 00000000 		.word	I2C_slRdBufIndex
 401              		.cfi_endproc
 402              	.LFE8:
 403              		.size	I2C_I2CSlaveGetReadBufSize, .-I2C_I2CSlaveGetReadBufSize
 404              		.section	.text.I2C_I2CSlaveGetWriteBufSize,"ax",%progbits
 405              		.align	1
 406              		.global	I2C_I2CSlaveGetWriteBufSize
 407              		.code	16
 408              		.thumb_func
 409              		.type	I2C_I2CSlaveGetWriteBufSize, %function
 410              	I2C_I2CSlaveGetWriteBufSize:
 411              	.LFB9:
 349:Generated_Source\PSoC4/I2C_I2C_SLAVE.c **** 
 350:Generated_Source\PSoC4/I2C_I2C_SLAVE.c **** 
 351:Generated_Source\PSoC4/I2C_I2C_SLAVE.c **** /*******************************************************************************
 352:Generated_Source\PSoC4/I2C_I2C_SLAVE.c **** * Function Name: I2C_I2CSlaveGetWriteBufSize
 353:Generated_Source\PSoC4/I2C_I2C_SLAVE.c **** ****************************************************************************//**
 354:Generated_Source\PSoC4/I2C_I2C_SLAVE.c **** *
 355:Generated_Source\PSoC4/I2C_I2C_SLAVE.c **** *  Returns the number of bytes written by the I2C master since an
 356:Generated_Source\PSoC4/I2C_I2C_SLAVE.c **** *  I2C_I2CSlaveInitWriteBuf() or 
ARM GAS  C:\Users\Minakian\AppData\Local\Temp\ccs5y3DW.s 			page 15


 357:Generated_Source\PSoC4/I2C_I2C_SLAVE.c **** *  I2C_I2CSlaveClearWriteBuf() function was executed.
 358:Generated_Source\PSoC4/I2C_I2C_SLAVE.c **** *  The maximum return value is the size of the write buffer.
 359:Generated_Source\PSoC4/I2C_I2C_SLAVE.c **** *
 360:Generated_Source\PSoC4/I2C_I2C_SLAVE.c **** * \return
 361:Generated_Source\PSoC4/I2C_I2C_SLAVE.c **** *  Bytes written by master.
 362:Generated_Source\PSoC4/I2C_I2C_SLAVE.c **** *
 363:Generated_Source\PSoC4/I2C_I2C_SLAVE.c **** * \sideeffect
 364:Generated_Source\PSoC4/I2C_I2C_SLAVE.c **** *  The returned value is not valid if I2C_I2C_SSTAT_WR_ERR was 
 365:Generated_Source\PSoC4/I2C_I2C_SLAVE.c **** *  captured by the slave.
 366:Generated_Source\PSoC4/I2C_I2C_SLAVE.c **** *
 367:Generated_Source\PSoC4/I2C_I2C_SLAVE.c **** * \globalvars
 368:Generated_Source\PSoC4/I2C_I2C_SLAVE.c **** *  I2C_slWrBufIndex - used to store current index within slave
 369:Generated_Source\PSoC4/I2C_I2C_SLAVE.c **** *   write buffer.
 370:Generated_Source\PSoC4/I2C_I2C_SLAVE.c **** *
 371:Generated_Source\PSoC4/I2C_I2C_SLAVE.c **** *******************************************************************************/
 372:Generated_Source\PSoC4/I2C_I2C_SLAVE.c **** uint32 I2C_I2CSlaveGetWriteBufSize(void)
 373:Generated_Source\PSoC4/I2C_I2C_SLAVE.c **** {
 412              		.loc 1 373 0
 413              		.cfi_startproc
 414              		@ args = 0, pretend = 0, frame = 0
 415              		@ frame_needed = 0, uses_anonymous_args = 0
 416              		@ link register save eliminated.
 374:Generated_Source\PSoC4/I2C_I2C_SLAVE.c ****     return(I2C_slWrBufIndex);
 417              		.loc 1 374 0
 418 0000 014B     		ldr	r3, .L35
 375:Generated_Source\PSoC4/I2C_I2C_SLAVE.c **** }
 419              		.loc 1 375 0
 420              		@ sp needed
 374:Generated_Source\PSoC4/I2C_I2C_SLAVE.c ****     return(I2C_slWrBufIndex);
 421              		.loc 1 374 0
 422 0002 1868     		ldr	r0, [r3]
 423              		.loc 1 375 0
 424 0004 7047     		bx	lr
 425              	.L36:
 426 0006 C046     		.align	2
 427              	.L35:
 428 0008 00000000 		.word	I2C_slWrBufIndex
 429              		.cfi_endproc
 430              	.LFE9:
 431              		.size	I2C_I2CSlaveGetWriteBufSize, .-I2C_I2CSlaveGetWriteBufSize
 432              		.section	.text.I2C_I2CSlaveClearReadBuf,"ax",%progbits
 433              		.align	1
 434              		.global	I2C_I2CSlaveClearReadBuf
 435              		.code	16
 436              		.thumb_func
 437              		.type	I2C_I2CSlaveClearReadBuf, %function
 438              	I2C_I2CSlaveClearReadBuf:
 439              	.LFB10:
 376:Generated_Source\PSoC4/I2C_I2C_SLAVE.c **** 
 377:Generated_Source\PSoC4/I2C_I2C_SLAVE.c **** 
 378:Generated_Source\PSoC4/I2C_I2C_SLAVE.c **** /*******************************************************************************
 379:Generated_Source\PSoC4/I2C_I2C_SLAVE.c **** * Function Name: I2C_I2CSlaveClearReadBuf
 380:Generated_Source\PSoC4/I2C_I2C_SLAVE.c **** ****************************************************************************//**
 381:Generated_Source\PSoC4/I2C_I2C_SLAVE.c **** *
 382:Generated_Source\PSoC4/I2C_I2C_SLAVE.c **** *  Resets the read pointer to the first byte in the read buffer. The next byte
 383:Generated_Source\PSoC4/I2C_I2C_SLAVE.c **** *  read by the master will be the first byte in the read buffer.
 384:Generated_Source\PSoC4/I2C_I2C_SLAVE.c **** *
ARM GAS  C:\Users\Minakian\AppData\Local\Temp\ccs5y3DW.s 			page 16


 385:Generated_Source\PSoC4/I2C_I2C_SLAVE.c **** * \globalvars
 386:Generated_Source\PSoC4/I2C_I2C_SLAVE.c **** *  I2C_slRdBufIndex - used to store current index within slave
 387:Generated_Source\PSoC4/I2C_I2C_SLAVE.c **** *  read buffer.
 388:Generated_Source\PSoC4/I2C_I2C_SLAVE.c **** *
 389:Generated_Source\PSoC4/I2C_I2C_SLAVE.c **** *******************************************************************************/
 390:Generated_Source\PSoC4/I2C_I2C_SLAVE.c **** void I2C_I2CSlaveClearReadBuf(void)
 391:Generated_Source\PSoC4/I2C_I2C_SLAVE.c **** {
 440              		.loc 1 391 0
 441              		.cfi_startproc
 442              		@ args = 0, pretend = 0, frame = 0
 443              		@ frame_needed = 0, uses_anonymous_args = 0
 444              		@ link register save eliminated.
 392:Generated_Source\PSoC4/I2C_I2C_SLAVE.c ****     I2C_slRdBufIndex = 0u;
 445              		.loc 1 392 0
 446 0000 0022     		movs	r2, #0
 447 0002 014B     		ldr	r3, .L38
 393:Generated_Source\PSoC4/I2C_I2C_SLAVE.c **** }
 448              		.loc 1 393 0
 449              		@ sp needed
 392:Generated_Source\PSoC4/I2C_I2C_SLAVE.c ****     I2C_slRdBufIndex = 0u;
 450              		.loc 1 392 0
 451 0004 1A60     		str	r2, [r3]
 452              		.loc 1 393 0
 453 0006 7047     		bx	lr
 454              	.L39:
 455              		.align	2
 456              	.L38:
 457 0008 00000000 		.word	I2C_slRdBufIndex
 458              		.cfi_endproc
 459              	.LFE10:
 460              		.size	I2C_I2CSlaveClearReadBuf, .-I2C_I2CSlaveClearReadBuf
 461              		.section	.text.I2C_I2CSlaveClearWriteBuf,"ax",%progbits
 462              		.align	1
 463              		.global	I2C_I2CSlaveClearWriteBuf
 464              		.code	16
 465              		.thumb_func
 466              		.type	I2C_I2CSlaveClearWriteBuf, %function
 467              	I2C_I2CSlaveClearWriteBuf:
 468              	.LFB11:
 394:Generated_Source\PSoC4/I2C_I2C_SLAVE.c **** 
 395:Generated_Source\PSoC4/I2C_I2C_SLAVE.c **** 
 396:Generated_Source\PSoC4/I2C_I2C_SLAVE.c **** /*******************************************************************************
 397:Generated_Source\PSoC4/I2C_I2C_SLAVE.c **** * Function Name: I2C_I2CSlaveClearWriteBuf
 398:Generated_Source\PSoC4/I2C_I2C_SLAVE.c **** ****************************************************************************//**
 399:Generated_Source\PSoC4/I2C_I2C_SLAVE.c **** *
 400:Generated_Source\PSoC4/I2C_I2C_SLAVE.c **** *  Resets the write pointer to the first byte in the write buffer. The next byte
 401:Generated_Source\PSoC4/I2C_I2C_SLAVE.c **** *  written by the master will be the first byte in the write buffer.
 402:Generated_Source\PSoC4/I2C_I2C_SLAVE.c **** *
 403:Generated_Source\PSoC4/I2C_I2C_SLAVE.c **** * \globalvars
 404:Generated_Source\PSoC4/I2C_I2C_SLAVE.c **** *  I2C_slWrBufIndex - used to store current index within slave
 405:Generated_Source\PSoC4/I2C_I2C_SLAVE.c **** *  write buffer.
 406:Generated_Source\PSoC4/I2C_I2C_SLAVE.c **** *
 407:Generated_Source\PSoC4/I2C_I2C_SLAVE.c **** *******************************************************************************/
 408:Generated_Source\PSoC4/I2C_I2C_SLAVE.c **** void I2C_I2CSlaveClearWriteBuf(void)
 409:Generated_Source\PSoC4/I2C_I2C_SLAVE.c **** {
 469              		.loc 1 409 0
 470              		.cfi_startproc
ARM GAS  C:\Users\Minakian\AppData\Local\Temp\ccs5y3DW.s 			page 17


 471              		@ args = 0, pretend = 0, frame = 0
 472              		@ frame_needed = 0, uses_anonymous_args = 0
 473              		@ link register save eliminated.
 410:Generated_Source\PSoC4/I2C_I2C_SLAVE.c ****     I2C_slWrBufIndex = 0u;
 474              		.loc 1 410 0
 475 0000 0022     		movs	r2, #0
 476 0002 014B     		ldr	r3, .L41
 411:Generated_Source\PSoC4/I2C_I2C_SLAVE.c **** }
 477              		.loc 1 411 0
 478              		@ sp needed
 410:Generated_Source\PSoC4/I2C_I2C_SLAVE.c ****     I2C_slWrBufIndex = 0u;
 479              		.loc 1 410 0
 480 0004 1A60     		str	r2, [r3]
 481              		.loc 1 411 0
 482 0006 7047     		bx	lr
 483              	.L42:
 484              		.align	2
 485              	.L41:
 486 0008 00000000 		.word	I2C_slWrBufIndex
 487              		.cfi_endproc
 488              	.LFE11:
 489              		.size	I2C_I2CSlaveClearWriteBuf, .-I2C_I2CSlaveClearWriteBuf
 490              		.comm	I2C_slOverFlowCount,1,1
 491              		.comm	I2C_slRdBufIndexTmp,4,4
 492              		.comm	I2C_slRdBufIndex,4,4
 493              		.comm	I2C_slRdBufSize,4,4
 494              		.comm	I2C_slRdBufPtr,4,4
 495              		.comm	I2C_slWrBufIndex,4,4
 496              		.comm	I2C_slWrBufSize,4,4
 497              		.comm	I2C_slWrBufPtr,4,4
 498              		.comm	I2C_slStatus,1,1
 499              		.text
 500              	.Letext0:
 501              		.file 2 "Generated_Source\\PSoC4/cytypes.h"
 502              		.file 3 "Generated_Source\\PSoC4/CyLib.h"